
STM32F401CCU6_COTS.elf:     file format elf32-littlearm

Sections:
Idx Name          Size      VMA       LMA       File off  Algn
  0 .isr_vector   00000194  08000000  08000000  00010000  2**0
                  CONTENTS, ALLOC, LOAD, READONLY, DATA
  1 .text         000011b8  08000194  08000194  00010194  2**2
                  CONTENTS, ALLOC, LOAD, READONLY, CODE
  2 .rodata       00000000  0800134c  0800134c  00020014  2**0
                  CONTENTS, ALLOC, LOAD, DATA
  3 .ARM.extab    00000000  0800134c  0800134c  00020014  2**0
                  CONTENTS
  4 .ARM          00000000  0800134c  0800134c  00020014  2**0
                  CONTENTS
  5 .preinit_array 00000000  0800134c  0800134c  00020014  2**0
                  CONTENTS, ALLOC, LOAD, DATA
  6 .init_array   00000004  0800134c  0800134c  0001134c  2**2
                  CONTENTS, ALLOC, LOAD, DATA
  7 .fini_array   00000004  08001350  08001350  00011350  2**2
                  CONTENTS, ALLOC, LOAD, DATA
  8 .data         00000014  20000000  08001354  00020000  2**2
                  CONTENTS, ALLOC, LOAD, DATA
  9 .bss          00000070  20000014  08001368  00020014  2**2
                  ALLOC
 10 ._user_heap_stack 00000604  20000084  08001368  00020084  2**0
                  ALLOC
 11 .ARM.attributes 00000030  00000000  00000000  00020014  2**0
                  CONTENTS, READONLY
 12 .comment      00000043  00000000  00000000  00020044  2**0
                  CONTENTS, READONLY
 13 .debug_info   00002ae6  00000000  00000000  00020087  2**0
                  CONTENTS, READONLY, DEBUGGING, OCTETS
 14 .debug_abbrev 00000de4  00000000  00000000  00022b6d  2**0
                  CONTENTS, READONLY, DEBUGGING, OCTETS
 15 .debug_aranges 00000408  00000000  00000000  00023958  2**3
                  CONTENTS, READONLY, DEBUGGING, OCTETS
 16 .debug_macro  00000bf7  00000000  00000000  00023d60  2**0
                  CONTENTS, READONLY, DEBUGGING, OCTETS
 17 .debug_line   000025a1  00000000  00000000  00024957  2**0
                  CONTENTS, READONLY, DEBUGGING, OCTETS
 18 .debug_str    0000714b  00000000  00000000  00026ef8  2**0
                  CONTENTS, READONLY, DEBUGGING, OCTETS
 19 .debug_rnglists 000002ab  00000000  00000000  0002e043  2**0
                  CONTENTS, READONLY, DEBUGGING, OCTETS
 20 .debug_frame  00000c88  00000000  00000000  0002e2f0  2**2
                  CONTENTS, READONLY, DEBUGGING, OCTETS
 21 .debug_line_str 0000006c  00000000  00000000  0002ef78  2**0
                  CONTENTS, READONLY, DEBUGGING, OCTETS

Disassembly of section .text:

08000194 <__do_global_dtors_aux>:
 8000194:	b510      	push	{r4, lr}
 8000196:	4c05      	ldr	r4, [pc, #20]	; (80001ac <__do_global_dtors_aux+0x18>)
 8000198:	7823      	ldrb	r3, [r4, #0]
 800019a:	b933      	cbnz	r3, 80001aa <__do_global_dtors_aux+0x16>
 800019c:	4b04      	ldr	r3, [pc, #16]	; (80001b0 <__do_global_dtors_aux+0x1c>)
 800019e:	b113      	cbz	r3, 80001a6 <__do_global_dtors_aux+0x12>
 80001a0:	4804      	ldr	r0, [pc, #16]	; (80001b4 <__do_global_dtors_aux+0x20>)
 80001a2:	f3af 8000 	nop.w
 80001a6:	2301      	movs	r3, #1
 80001a8:	7023      	strb	r3, [r4, #0]
 80001aa:	bd10      	pop	{r4, pc}
 80001ac:	20000014 	.word	0x20000014
 80001b0:	00000000 	.word	0x00000000
 80001b4:	08001334 	.word	0x08001334

080001b8 <frame_dummy>:
 80001b8:	b508      	push	{r3, lr}
 80001ba:	4b03      	ldr	r3, [pc, #12]	; (80001c8 <frame_dummy+0x10>)
 80001bc:	b11b      	cbz	r3, 80001c6 <frame_dummy+0xe>
 80001be:	4903      	ldr	r1, [pc, #12]	; (80001cc <frame_dummy+0x14>)
 80001c0:	4803      	ldr	r0, [pc, #12]	; (80001d0 <frame_dummy+0x18>)
 80001c2:	f3af 8000 	nop.w
 80001c6:	bd08      	pop	{r3, pc}
 80001c8:	00000000 	.word	0x00000000
 80001cc:	20000018 	.word	0x20000018
 80001d0:	08001334 	.word	0x08001334

080001d4 <IR_voidInit>:

/**********************************************************************************************************************
 *  GLOBAL FUNCTIONS
 *********************************************************************************************************************/
void IR_voidInit (IR_Config_t *Copy_IR_Config , pCallBackNotification IR_CallbackNotification)
{
 80001d4:	b580      	push	{r7, lr}
 80001d6:	b084      	sub	sp, #16
 80001d8:	af00      	add	r7, sp, #0
 80001da:	6078      	str	r0, [r7, #4]
 80001dc:	6039      	str	r1, [r7, #0]
	MEXTI_CONFIG_t IR_EXTI_Config;
	IR_EXTI_Config.MEXTI_Mode = MEXTI_INTERRUPT_MODE;
 80001de:	2300      	movs	r3, #0
 80001e0:	73fb      	strb	r3, [r7, #15]
	IR_EXTI_Config.MEXTI_SenseSignal = Copy_IR_Config->IR_Trigger_Mode;
 80001e2:	687b      	ldr	r3, [r7, #4]
 80001e4:	789b      	ldrb	r3, [r3, #2]
 80001e6:	73bb      	strb	r3, [r7, #14]
	IR_EXTI_Config.MEXTI_Line = Copy_IR_Config->IR_Pin;
 80001e8:	687b      	ldr	r3, [r7, #4]
 80001ea:	785b      	ldrb	r3, [r3, #1]
 80001ec:	737b      	strb	r3, [r7, #13]
    IR_EXTI_Config.MEXTI_Port = Copy_IR_Config->IR_Port;
 80001ee:	687b      	ldr	r3, [r7, #4]
 80001f0:	781b      	ldrb	r3, [r3, #0]
 80001f2:	733b      	strb	r3, [r7, #12]
	MEXTI_voidInit(&IR_EXTI_Config,IR_EXTI_Handler);
 80001f4:	f107 030c 	add.w	r3, r7, #12
 80001f8:	491a      	ldr	r1, [pc, #104]	; (8000264 <IR_voidInit+0x90>)
 80001fa:	4618      	mov	r0, r3
 80001fc:	f000 fa2e 	bl	800065c <MEXTI_voidInit>
	switch (Copy_IR_Config->IR_Port)
 8000200:	687b      	ldr	r3, [r7, #4]
 8000202:	781b      	ldrb	r3, [r3, #0]
 8000204:	2b02      	cmp	r3, #2
 8000206:	d010      	beq.n	800022a <IR_voidInit+0x56>
 8000208:	2b02      	cmp	r3, #2
 800020a:	dc13      	bgt.n	8000234 <IR_voidInit+0x60>
 800020c:	2b00      	cmp	r3, #0
 800020e:	d002      	beq.n	8000216 <IR_voidInit+0x42>
 8000210:	2b01      	cmp	r3, #1
 8000212:	d005      	beq.n	8000220 <IR_voidInit+0x4c>
	      break;
	    case GPIO_PORTC:
	      RCC_voidEnablePeripheralClock(RCC_AHB,RCC_AHB_GPIOCEN);
	      break;
	    default:
	      break;
 8000214:	e00e      	b.n	8000234 <IR_voidInit+0x60>
	      RCC_voidEnablePeripheralClock(RCC_AHB,RCC_AHB_GPIOAEN);
 8000216:	2100      	movs	r1, #0
 8000218:	2000      	movs	r0, #0
 800021a:	f000 fecf 	bl	8000fbc <RCC_voidEnablePeripheralClock>
	      break;
 800021e:	e00a      	b.n	8000236 <IR_voidInit+0x62>
	      RCC_voidEnablePeripheralClock(RCC_AHB,RCC_AHB_GPIOBEN);
 8000220:	2101      	movs	r1, #1
 8000222:	2000      	movs	r0, #0
 8000224:	f000 feca 	bl	8000fbc <RCC_voidEnablePeripheralClock>
	      break;
 8000228:	e005      	b.n	8000236 <IR_voidInit+0x62>
	      RCC_voidEnablePeripheralClock(RCC_AHB,RCC_AHB_GPIOCEN);
 800022a:	2102      	movs	r1, #2
 800022c:	2000      	movs	r0, #0
 800022e:	f000 fec5 	bl	8000fbc <RCC_voidEnablePeripheralClock>
	      break;
 8000232:	e000      	b.n	8000236 <IR_voidInit+0x62>
	      break;
 8000234:	bf00      	nop
	  }
	  GPIO_voidSetPinMode(Copy_IR_Config->IR_Port,Copy_IR_Config->IR_Pin,GPIO_INPUT_PIN_MODE);
 8000236:	687b      	ldr	r3, [r7, #4]
 8000238:	7818      	ldrb	r0, [r3, #0]
 800023a:	687b      	ldr	r3, [r7, #4]
 800023c:	785b      	ldrb	r3, [r3, #1]
 800023e:	2200      	movs	r2, #0
 8000240:	4619      	mov	r1, r3
 8000242:	f000 fc5d 	bl	8000b00 <GPIO_voidSetPinMode>
	  GPIO_voidSetPinPullUpDownResistor(Copy_IR_Config->IR_Port,Copy_IR_Config->IR_Pin,GPIO_INPUT_PIN_FLOAT);
 8000246:	687b      	ldr	r3, [r7, #4]
 8000248:	7818      	ldrb	r0, [r3, #0]
 800024a:	687b      	ldr	r3, [r7, #4]
 800024c:	785b      	ldrb	r3, [r3, #1]
 800024e:	2200      	movs	r2, #0
 8000250:	4619      	mov	r1, r3
 8000252:	f000 fdbb 	bl	8000dcc <GPIO_voidSetPinPullUpDownResistor>
	  IR_callback = IR_CallbackNotification;
 8000256:	4a04      	ldr	r2, [pc, #16]	; (8000268 <IR_voidInit+0x94>)
 8000258:	683b      	ldr	r3, [r7, #0]
 800025a:	6013      	str	r3, [r2, #0]
}
 800025c:	bf00      	nop
 800025e:	3710      	adds	r7, #16
 8000260:	46bd      	mov	sp, r7
 8000262:	bd80      	pop	{r7, pc}
 8000264:	08000285 	.word	0x08000285
 8000268:	20000030 	.word	0x20000030

0800026c <IR_u32GetReceivedData>:
	}
	return Local_IR_ReceivedFlag;
}

u32  IR_u32GetReceivedData(void)
{
 800026c:	b480      	push	{r7}
 800026e:	af00      	add	r7, sp, #0
	return IR_ReceivedData;
 8000270:	4b03      	ldr	r3, [pc, #12]	; (8000280 <IR_u32GetReceivedData+0x14>)
 8000272:	681b      	ldr	r3, [r3, #0]
}
 8000274:	4618      	mov	r0, r3
 8000276:	46bd      	mov	sp, r7
 8000278:	f85d 7b04 	ldr.w	r7, [sp], #4
 800027c:	4770      	bx	lr
 800027e:	bf00      	nop
 8000280:	20000034 	.word	0x20000034

08000284 <IR_EXTI_Handler>:

static void IR_EXTI_Handler()
{
 8000284:	b580      	push	{r7, lr}
 8000286:	b082      	sub	sp, #8
 8000288:	af00      	add	r7, sp, #0
	static u8 IR_Status_Flag = IR_START_SIGNAL_STARTED;
	static s8 IR_BitCounter = IR_BIT_COUNT_INIT;
	u32 IR_ElapsedTime = ZERO_INIT;
 800028a:	2300      	movs	r3, #0
 800028c:	607b      	str	r3, [r7, #4]
	if(IR_Status_Flag == IR_START_SIGNAL_STARTED)
 800028e:	4b42      	ldr	r3, [pc, #264]	; (8000398 <IR_EXTI_Handler+0x114>)
 8000290:	781b      	ldrb	r3, [r3, #0]
 8000292:	2b00      	cmp	r3, #0
 8000294:	d107      	bne.n	80002a6 <IR_EXTI_Handler+0x22>
	{
		IR_Status_Flag = IR_START_SIGNAL_ENDED;
 8000296:	4b40      	ldr	r3, [pc, #256]	; (8000398 <IR_EXTI_Handler+0x114>)
 8000298:	2201      	movs	r2, #1
 800029a:	701a      	strb	r2, [r3, #0]
		MSystick_voidSetPreloadvalue(IR_START_SIGNAL_RANGE_HIGH);
 800029c:	f643 2098 	movw	r0, #15000	; 0x3a98
 80002a0:	f000 ff4e 	bl	8001140 <MSystick_voidSetPreloadvalue>
			IR_ReceivedFlag = IR_RECEIVED_DATA_STATUS;
		}

	}

}
 80002a4:	e073      	b.n	800038e <IR_EXTI_Handler+0x10a>
	else if (IR_Status_Flag == IR_START_SIGNAL_ENDED)
 80002a6:	4b3c      	ldr	r3, [pc, #240]	; (8000398 <IR_EXTI_Handler+0x114>)
 80002a8:	781b      	ldrb	r3, [r3, #0]
 80002aa:	2b01      	cmp	r3, #1
 80002ac:	d112      	bne.n	80002d4 <IR_EXTI_Handler+0x50>
		IR_ElapsedTime = MSysTick_u32GetElapsedTime_us();
 80002ae:	f000 ff21 	bl	80010f4 <MSysTick_u32GetElapsedTime_us>
 80002b2:	6078      	str	r0, [r7, #4]
		if(IR_ElapsedTime >= IR_START_SIGNAL_RANGE_LOW && IR_ElapsedTime <= IR_START_SIGNAL_RANGE_HIGH)
 80002b4:	687b      	ldr	r3, [r7, #4]
 80002b6:	f243 22c7 	movw	r2, #12999	; 0x32c7
 80002ba:	4293      	cmp	r3, r2
 80002bc:	d907      	bls.n	80002ce <IR_EXTI_Handler+0x4a>
 80002be:	687b      	ldr	r3, [r7, #4]
 80002c0:	f643 2298 	movw	r2, #15000	; 0x3a98
 80002c4:	4293      	cmp	r3, r2
 80002c6:	d802      	bhi.n	80002ce <IR_EXTI_Handler+0x4a>
			IR_Status_Flag = IR_GETTING_DATA;
 80002c8:	4b33      	ldr	r3, [pc, #204]	; (8000398 <IR_EXTI_Handler+0x114>)
 80002ca:	2202      	movs	r2, #2
 80002cc:	701a      	strb	r2, [r3, #0]
		MSystick_voidResetTimer();
 80002ce:	f000 ff2b 	bl	8001128 <MSystick_voidResetTimer>
}
 80002d2:	e05c      	b.n	800038e <IR_EXTI_Handler+0x10a>
	else if (IR_Status_Flag == IR_GETTING_DATA)
 80002d4:	4b30      	ldr	r3, [pc, #192]	; (8000398 <IR_EXTI_Handler+0x114>)
 80002d6:	781b      	ldrb	r3, [r3, #0]
 80002d8:	2b02      	cmp	r3, #2
 80002da:	d143      	bne.n	8000364 <IR_EXTI_Handler+0xe0>
		IR_ElapsedTime = MSysTick_u32GetElapsedTime_us();
 80002dc:	f000 ff0a 	bl	80010f4 <MSysTick_u32GetElapsedTime_us>
 80002e0:	6078      	str	r0, [r7, #4]
		if(IR_ElapsedTime >= IR_LOW_LEVEL_SIGNAL_RANGE_LOW && IR_ElapsedTime <= IR_LOW_LEVEL_SIGNAL_RANGE_HIGH)
 80002e2:	687b      	ldr	r3, [r7, #4]
 80002e4:	f5b3 7f7a 	cmp.w	r3, #1000	; 0x3e8
 80002e8:	d312      	bcc.n	8000310 <IR_EXTI_Handler+0x8c>
 80002ea:	687b      	ldr	r3, [r7, #4]
 80002ec:	f240 52dc 	movw	r2, #1500	; 0x5dc
 80002f0:	4293      	cmp	r3, r2
 80002f2:	d80d      	bhi.n	8000310 <IR_EXTI_Handler+0x8c>
			CLR_BIT(IR_ReceivedData,IR_BitCounter);
 80002f4:	4b29      	ldr	r3, [pc, #164]	; (800039c <IR_EXTI_Handler+0x118>)
 80002f6:	f993 3000 	ldrsb.w	r3, [r3]
 80002fa:	461a      	mov	r2, r3
 80002fc:	2301      	movs	r3, #1
 80002fe:	4093      	lsls	r3, r2
 8000300:	43db      	mvns	r3, r3
 8000302:	461a      	mov	r2, r3
 8000304:	4b26      	ldr	r3, [pc, #152]	; (80003a0 <IR_EXTI_Handler+0x11c>)
 8000306:	681b      	ldr	r3, [r3, #0]
 8000308:	4013      	ands	r3, r2
 800030a:	4a25      	ldr	r2, [pc, #148]	; (80003a0 <IR_EXTI_Handler+0x11c>)
 800030c:	6013      	str	r3, [r2, #0]
 800030e:	e014      	b.n	800033a <IR_EXTI_Handler+0xb6>
		else if (IR_ElapsedTime >= IR_HIGH_LEVEL_SIGNAL_RANGE_LOW && IR_ElapsedTime <= IR_HIGH_LEVEL_SIGNAL_RANGE_HIGH)
 8000310:	687b      	ldr	r3, [r7, #4]
 8000312:	f5b3 6ffa 	cmp.w	r3, #2000	; 0x7d0
 8000316:	d310      	bcc.n	800033a <IR_EXTI_Handler+0xb6>
 8000318:	687b      	ldr	r3, [r7, #4]
 800031a:	f640 12c4 	movw	r2, #2500	; 0x9c4
 800031e:	4293      	cmp	r3, r2
 8000320:	d80b      	bhi.n	800033a <IR_EXTI_Handler+0xb6>
			SET_BIT(IR_ReceivedData,IR_BitCounter);
 8000322:	4b1e      	ldr	r3, [pc, #120]	; (800039c <IR_EXTI_Handler+0x118>)
 8000324:	f993 3000 	ldrsb.w	r3, [r3]
 8000328:	461a      	mov	r2, r3
 800032a:	2301      	movs	r3, #1
 800032c:	4093      	lsls	r3, r2
 800032e:	461a      	mov	r2, r3
 8000330:	4b1b      	ldr	r3, [pc, #108]	; (80003a0 <IR_EXTI_Handler+0x11c>)
 8000332:	681b      	ldr	r3, [r3, #0]
 8000334:	4313      	orrs	r3, r2
 8000336:	4a1a      	ldr	r2, [pc, #104]	; (80003a0 <IR_EXTI_Handler+0x11c>)
 8000338:	6013      	str	r3, [r2, #0]
		IR_BitCounter--;
 800033a:	4b18      	ldr	r3, [pc, #96]	; (800039c <IR_EXTI_Handler+0x118>)
 800033c:	f993 3000 	ldrsb.w	r3, [r3]
 8000340:	b2db      	uxtb	r3, r3
 8000342:	3b01      	subs	r3, #1
 8000344:	b2db      	uxtb	r3, r3
 8000346:	b25a      	sxtb	r2, r3
 8000348:	4b14      	ldr	r3, [pc, #80]	; (800039c <IR_EXTI_Handler+0x118>)
 800034a:	701a      	strb	r2, [r3, #0]
		if(IR_BitCounter == IR_BIT_COUNT_END) IR_Status_Flag = IR_END_OF_FRAME_DETECTED;
 800034c:	4b13      	ldr	r3, [pc, #76]	; (800039c <IR_EXTI_Handler+0x118>)
 800034e:	f993 3000 	ldrsb.w	r3, [r3]
 8000352:	f1b3 3fff 	cmp.w	r3, #4294967295
 8000356:	d102      	bne.n	800035e <IR_EXTI_Handler+0xda>
 8000358:	4b0f      	ldr	r3, [pc, #60]	; (8000398 <IR_EXTI_Handler+0x114>)
 800035a:	2205      	movs	r2, #5
 800035c:	701a      	strb	r2, [r3, #0]
		MSystick_voidResetTimer();
 800035e:	f000 fee3 	bl	8001128 <MSystick_voidResetTimer>
}
 8000362:	e014      	b.n	800038e <IR_EXTI_Handler+0x10a>
	else if(IR_Status_Flag == IR_END_OF_FRAME_DETECTED)
 8000364:	4b0c      	ldr	r3, [pc, #48]	; (8000398 <IR_EXTI_Handler+0x114>)
 8000366:	781b      	ldrb	r3, [r3, #0]
 8000368:	2b05      	cmp	r3, #5
 800036a:	d110      	bne.n	800038e <IR_EXTI_Handler+0x10a>
		IR_BitCounter = IR_BIT_COUNT_INIT;
 800036c:	4b0b      	ldr	r3, [pc, #44]	; (800039c <IR_EXTI_Handler+0x118>)
 800036e:	221f      	movs	r2, #31
 8000370:	701a      	strb	r2, [r3, #0]
		IR_Status_Flag =  IR_START_SIGNAL_STARTED;
 8000372:	4b09      	ldr	r3, [pc, #36]	; (8000398 <IR_EXTI_Handler+0x114>)
 8000374:	2200      	movs	r2, #0
 8000376:	701a      	strb	r2, [r3, #0]
		if(IR_callback != NULL){
 8000378:	4b0a      	ldr	r3, [pc, #40]	; (80003a4 <IR_EXTI_Handler+0x120>)
 800037a:	681b      	ldr	r3, [r3, #0]
 800037c:	2b00      	cmp	r3, #0
 800037e:	d003      	beq.n	8000388 <IR_EXTI_Handler+0x104>
			IR_callback();
 8000380:	4b08      	ldr	r3, [pc, #32]	; (80003a4 <IR_EXTI_Handler+0x120>)
 8000382:	681b      	ldr	r3, [r3, #0]
 8000384:	4798      	blx	r3
}
 8000386:	e002      	b.n	800038e <IR_EXTI_Handler+0x10a>
			IR_ReceivedFlag = IR_RECEIVED_DATA_STATUS;
 8000388:	4b07      	ldr	r3, [pc, #28]	; (80003a8 <IR_EXTI_Handler+0x124>)
 800038a:	2201      	movs	r2, #1
 800038c:	701a      	strb	r2, [r3, #0]
}
 800038e:	bf00      	nop
 8000390:	3708      	adds	r7, #8
 8000392:	46bd      	mov	sp, r7
 8000394:	bd80      	pop	{r7, pc}
 8000396:	bf00      	nop
 8000398:	20000039 	.word	0x20000039
 800039c:	20000003 	.word	0x20000003
 80003a0:	20000034 	.word	0x20000034
 80003a4:	20000030 	.word	0x20000030
 80003a8:	20000038 	.word	0x20000038

080003ac <LED_voidInit>:
#include "../../../Inc/HAL/LED/LED_interface.h"
#include "../../../Inc/HAL/LED/LED_private.h"


// Software Interfaces Definitions
void LED_voidInit(Led_t* REF_LedObj) {
 80003ac:	b580      	push	{r7, lr}
 80003ae:	b082      	sub	sp, #8
 80003b0:	af00      	add	r7, sp, #0
 80003b2:	6078      	str	r0, [r7, #4]
  switch (REF_LedObj->led_port) {
 80003b4:	687b      	ldr	r3, [r7, #4]
 80003b6:	785b      	ldrb	r3, [r3, #1]
 80003b8:	2b02      	cmp	r3, #2
 80003ba:	d010      	beq.n	80003de <LED_voidInit+0x32>
 80003bc:	2b02      	cmp	r3, #2
 80003be:	dc13      	bgt.n	80003e8 <LED_voidInit+0x3c>
 80003c0:	2b00      	cmp	r3, #0
 80003c2:	d002      	beq.n	80003ca <LED_voidInit+0x1e>
 80003c4:	2b01      	cmp	r3, #1
 80003c6:	d005      	beq.n	80003d4 <LED_voidInit+0x28>
      break;
    case GPIO_PORTC:
      RCC_voidEnablePeripheralClock(RCC_AHB,RCC_AHB_GPIOCEN);
      break;
    default:
      break;
 80003c8:	e00e      	b.n	80003e8 <LED_voidInit+0x3c>
      RCC_voidEnablePeripheralClock(RCC_AHB,RCC_AHB_GPIOAEN);
 80003ca:	2100      	movs	r1, #0
 80003cc:	2000      	movs	r0, #0
 80003ce:	f000 fdf5 	bl	8000fbc <RCC_voidEnablePeripheralClock>
      break;
 80003d2:	e00a      	b.n	80003ea <LED_voidInit+0x3e>
      RCC_voidEnablePeripheralClock(RCC_AHB,RCC_AHB_GPIOBEN);
 80003d4:	2101      	movs	r1, #1
 80003d6:	2000      	movs	r0, #0
 80003d8:	f000 fdf0 	bl	8000fbc <RCC_voidEnablePeripheralClock>
      break;
 80003dc:	e005      	b.n	80003ea <LED_voidInit+0x3e>
      RCC_voidEnablePeripheralClock(RCC_AHB,RCC_AHB_GPIOCEN);
 80003de:	2102      	movs	r1, #2
 80003e0:	2000      	movs	r0, #0
 80003e2:	f000 fdeb 	bl	8000fbc <RCC_voidEnablePeripheralClock>
      break;
 80003e6:	e000      	b.n	80003ea <LED_voidInit+0x3e>
      break;
 80003e8:	bf00      	nop
  }
  GPIO_voidSetPinMode(REF_LedObj->led_port,REF_LedObj->led_pin,GPIO_OUTPUT_PIN_MODE);
 80003ea:	687b      	ldr	r3, [r7, #4]
 80003ec:	7858      	ldrb	r0, [r3, #1]
 80003ee:	687b      	ldr	r3, [r7, #4]
 80003f0:	781b      	ldrb	r3, [r3, #0]
 80003f2:	2201      	movs	r2, #1
 80003f4:	4619      	mov	r1, r3
 80003f6:	f000 fb83 	bl	8000b00 <GPIO_voidSetPinMode>
  GPIO_voidSetPinOutputMode(REF_LedObj->led_port,REF_LedObj->led_pin,GPIO_OUTPUT_PIN_PUSH_PULL);
 80003fa:	687b      	ldr	r3, [r7, #4]
 80003fc:	7858      	ldrb	r0, [r3, #1]
 80003fe:	687b      	ldr	r3, [r7, #4]
 8000400:	781b      	ldrb	r3, [r3, #0]
 8000402:	2200      	movs	r2, #0
 8000404:	4619      	mov	r1, r3
 8000406:	f000 fbd5 	bl	8000bb4 <GPIO_voidSetPinOutputMode>
  GPIO_voidSetPinOutputSpeed(REF_LedObj->led_port,REF_LedObj->led_pin,GPIO_OUTPUT_PIN_LOW_SPEED);
 800040a:	687b      	ldr	r3, [r7, #4]
 800040c:	7858      	ldrb	r0, [r3, #1]
 800040e:	687b      	ldr	r3, [r7, #4]
 8000410:	781b      	ldrb	r3, [r3, #0]
 8000412:	2200      	movs	r2, #0
 8000414:	4619      	mov	r1, r3
 8000416:	f000 fc1f 	bl	8000c58 <GPIO_voidSetPinOutputSpeed>
  GPIO_voidSetPinValue(REF_LedObj->led_port,REF_LedObj->led_pin,REF_LedObj->led_logic);
 800041a:	687b      	ldr	r3, [r7, #4]
 800041c:	7858      	ldrb	r0, [r3, #1]
 800041e:	687b      	ldr	r3, [r7, #4]
 8000420:	7819      	ldrb	r1, [r3, #0]
 8000422:	687b      	ldr	r3, [r7, #4]
 8000424:	789b      	ldrb	r3, [r3, #2]
 8000426:	461a      	mov	r2, r3
 8000428:	f000 fc70 	bl	8000d0c <GPIO_voidSetPinValue>
}
 800042c:	bf00      	nop
 800042e:	3708      	adds	r7, #8
 8000430:	46bd      	mov	sp, r7
 8000432:	bd80      	pop	{r7, pc}

08000434 <LED_voidOn>:
void LED_voidOn(Led_t* REF_LedObj) {
 8000434:	b580      	push	{r7, lr}
 8000436:	b082      	sub	sp, #8
 8000438:	af00      	add	r7, sp, #0
 800043a:	6078      	str	r0, [r7, #4]
    GPIO_voidSetPinValue(REF_LedObj->led_port,REF_LedObj->led_pin,GPIO_HIGH);
 800043c:	687b      	ldr	r3, [r7, #4]
 800043e:	7858      	ldrb	r0, [r3, #1]
 8000440:	687b      	ldr	r3, [r7, #4]
 8000442:	781b      	ldrb	r3, [r3, #0]
 8000444:	2201      	movs	r2, #1
 8000446:	4619      	mov	r1, r3
 8000448:	f000 fc60 	bl	8000d0c <GPIO_voidSetPinValue>
    REF_LedObj->led_logic = GPIO_HIGH;
 800044c:	687b      	ldr	r3, [r7, #4]
 800044e:	2201      	movs	r2, #1
 8000450:	709a      	strb	r2, [r3, #2]
}
 8000452:	bf00      	nop
 8000454:	3708      	adds	r7, #8
 8000456:	46bd      	mov	sp, r7
 8000458:	bd80      	pop	{r7, pc}

0800045a <LED_voidOff>:
void LED_voidOff(Led_t* REF_LedObj) {
 800045a:	b580      	push	{r7, lr}
 800045c:	b082      	sub	sp, #8
 800045e:	af00      	add	r7, sp, #0
 8000460:	6078      	str	r0, [r7, #4]
    GPIO_voidSetPinValue(REF_LedObj->led_port,REF_LedObj->led_pin,GPIO_LOW);
 8000462:	687b      	ldr	r3, [r7, #4]
 8000464:	7858      	ldrb	r0, [r3, #1]
 8000466:	687b      	ldr	r3, [r7, #4]
 8000468:	781b      	ldrb	r3, [r3, #0]
 800046a:	2200      	movs	r2, #0
 800046c:	4619      	mov	r1, r3
 800046e:	f000 fc4d 	bl	8000d0c <GPIO_voidSetPinValue>
    REF_LedObj->led_logic = GPIO_LOW;
 8000472:	687b      	ldr	r3, [r7, #4]
 8000474:	2200      	movs	r2, #0
 8000476:	709a      	strb	r2, [r3, #2]
}
 8000478:	bf00      	nop
 800047a:	3708      	adds	r7, #8
 800047c:	46bd      	mov	sp, r7
 800047e:	bd80      	pop	{r7, pc}

08000480 <LED_voidToggle>:
void LED_voidToggle(Led_t* REF_LedObj)
{
 8000480:	b580      	push	{r7, lr}
 8000482:	b082      	sub	sp, #8
 8000484:	af00      	add	r7, sp, #0
 8000486:	6078      	str	r0, [r7, #4]
    if (REF_LedObj->led_logic == GPIO_HIGH)
 8000488:	687b      	ldr	r3, [r7, #4]
 800048a:	789b      	ldrb	r3, [r3, #2]
 800048c:	2b01      	cmp	r3, #1
 800048e:	d103      	bne.n	8000498 <LED_voidToggle+0x18>
    {
        LED_voidOff(REF_LedObj);
 8000490:	6878      	ldr	r0, [r7, #4]
 8000492:	f7ff ffe2 	bl	800045a <LED_voidOff>
    }
    else if(REF_LedObj->led_logic == GPIO_LOW){
        LED_voidOn(REF_LedObj);
    }
 8000496:	e006      	b.n	80004a6 <LED_voidToggle+0x26>
    else if(REF_LedObj->led_logic == GPIO_LOW){
 8000498:	687b      	ldr	r3, [r7, #4]
 800049a:	789b      	ldrb	r3, [r3, #2]
 800049c:	2b00      	cmp	r3, #0
 800049e:	d102      	bne.n	80004a6 <LED_voidToggle+0x26>
        LED_voidOn(REF_LedObj);
 80004a0:	6878      	ldr	r0, [r7, #4]
 80004a2:	f7ff ffc7 	bl	8000434 <LED_voidOn>
 80004a6:	bf00      	nop
 80004a8:	3708      	adds	r7, #8
 80004aa:	46bd      	mov	sp, r7
 80004ac:	bd80      	pop	{r7, pc}

080004ae <RGB_init_led>:

/**********************************************************************************************************************
 *  LOCAL FUNCTIONS
 *********************************************************************************************************************/
static void RGB_init_led(port_index_t RGB_LedPort, pin_index_t RGB_LedPin)
{
 80004ae:	b580      	push	{r7, lr}
 80004b0:	b082      	sub	sp, #8
 80004b2:	af00      	add	r7, sp, #0
 80004b4:	4603      	mov	r3, r0
 80004b6:	460a      	mov	r2, r1
 80004b8:	71fb      	strb	r3, [r7, #7]
 80004ba:	4613      	mov	r3, r2
 80004bc:	71bb      	strb	r3, [r7, #6]
	switch (RGB_LedPort) {
 80004be:	79fb      	ldrb	r3, [r7, #7]
 80004c0:	2b02      	cmp	r3, #2
 80004c2:	d010      	beq.n	80004e6 <RGB_init_led+0x38>
 80004c4:	2b02      	cmp	r3, #2
 80004c6:	dc13      	bgt.n	80004f0 <RGB_init_led+0x42>
 80004c8:	2b00      	cmp	r3, #0
 80004ca:	d002      	beq.n	80004d2 <RGB_init_led+0x24>
 80004cc:	2b01      	cmp	r3, #1
 80004ce:	d005      	beq.n	80004dc <RGB_init_led+0x2e>
	      break;
	    case GPIO_PORTC:
	      RCC_voidEnablePeripheralClock(RCC_AHB,RCC_AHB_GPIOCEN);
	      break;
	    default:
	      break;
 80004d0:	e00e      	b.n	80004f0 <RGB_init_led+0x42>
	      RCC_voidEnablePeripheralClock(RCC_AHB,RCC_AHB_GPIOAEN);
 80004d2:	2100      	movs	r1, #0
 80004d4:	2000      	movs	r0, #0
 80004d6:	f000 fd71 	bl	8000fbc <RCC_voidEnablePeripheralClock>
	      break;
 80004da:	e00a      	b.n	80004f2 <RGB_init_led+0x44>
	      RCC_voidEnablePeripheralClock(RCC_AHB,RCC_AHB_GPIOBEN);
 80004dc:	2101      	movs	r1, #1
 80004de:	2000      	movs	r0, #0
 80004e0:	f000 fd6c 	bl	8000fbc <RCC_voidEnablePeripheralClock>
	      break;
 80004e4:	e005      	b.n	80004f2 <RGB_init_led+0x44>
	      RCC_voidEnablePeripheralClock(RCC_AHB,RCC_AHB_GPIOCEN);
 80004e6:	2102      	movs	r1, #2
 80004e8:	2000      	movs	r0, #0
 80004ea:	f000 fd67 	bl	8000fbc <RCC_voidEnablePeripheralClock>
	      break;
 80004ee:	e000      	b.n	80004f2 <RGB_init_led+0x44>
	      break;
 80004f0:	bf00      	nop
	  }
	  GPIO_voidSetPinMode(RGB_LedPort,RGB_LedPin,GPIO_OUTPUT_PIN_MODE);
 80004f2:	79b9      	ldrb	r1, [r7, #6]
 80004f4:	79fb      	ldrb	r3, [r7, #7]
 80004f6:	2201      	movs	r2, #1
 80004f8:	4618      	mov	r0, r3
 80004fa:	f000 fb01 	bl	8000b00 <GPIO_voidSetPinMode>
	  GPIO_voidSetPinOutputMode(RGB_LedPort,RGB_LedPin,GPIO_OUTPUT_PIN_PUSH_PULL);
 80004fe:	79b9      	ldrb	r1, [r7, #6]
 8000500:	79fb      	ldrb	r3, [r7, #7]
 8000502:	2200      	movs	r2, #0
 8000504:	4618      	mov	r0, r3
 8000506:	f000 fb55 	bl	8000bb4 <GPIO_voidSetPinOutputMode>
	  GPIO_voidSetPinOutputSpeed(RGB_LedPort,RGB_LedPin,GPIO_OUTPUT_PIN_LOW_SPEED);
 800050a:	79b9      	ldrb	r1, [r7, #6]
 800050c:	79fb      	ldrb	r3, [r7, #7]
 800050e:	2200      	movs	r2, #0
 8000510:	4618      	mov	r0, r3
 8000512:	f000 fba1 	bl	8000c58 <GPIO_voidSetPinOutputSpeed>
	  GPIO_voidSetPinValue(RGB_LedPort,RGB_LedPin,GPIO_HIGH);
 8000516:	79b9      	ldrb	r1, [r7, #6]
 8000518:	79fb      	ldrb	r3, [r7, #7]
 800051a:	2201      	movs	r2, #1
 800051c:	4618      	mov	r0, r3
 800051e:	f000 fbf5 	bl	8000d0c <GPIO_voidSetPinValue>
}
 8000522:	bf00      	nop
 8000524:	3708      	adds	r7, #8
 8000526:	46bd      	mov	sp, r7
 8000528:	bd80      	pop	{r7, pc}

0800052a <RGB_voidInit>:
/**********************************************************************************************************************
 *  GLOBAL FUNCTIONS
 *********************************************************************************************************************/

void RGB_voidInit(RGB_Config_t* REF_RGBObj)
{
 800052a:	b580      	push	{r7, lr}
 800052c:	b082      	sub	sp, #8
 800052e:	af00      	add	r7, sp, #0
 8000530:	6078      	str	r0, [r7, #4]
	RGB_init_led(REF_RGBObj->RGB_Red_Port, REF_RGBObj->RGB_Red_Pin);
 8000532:	687b      	ldr	r3, [r7, #4]
 8000534:	785a      	ldrb	r2, [r3, #1]
 8000536:	687b      	ldr	r3, [r7, #4]
 8000538:	781b      	ldrb	r3, [r3, #0]
 800053a:	4619      	mov	r1, r3
 800053c:	4610      	mov	r0, r2
 800053e:	f7ff ffb6 	bl	80004ae <RGB_init_led>
	RGB_init_led(REF_RGBObj->RGB_Green_Port, REF_RGBObj->RGB_Green_Pin);
 8000542:	687b      	ldr	r3, [r7, #4]
 8000544:	791a      	ldrb	r2, [r3, #4]
 8000546:	687b      	ldr	r3, [r7, #4]
 8000548:	78db      	ldrb	r3, [r3, #3]
 800054a:	4619      	mov	r1, r3
 800054c:	4610      	mov	r0, r2
 800054e:	f7ff ffae 	bl	80004ae <RGB_init_led>
	RGB_init_led(REF_RGBObj->RGB_Blue_Port, REF_RGBObj->RGB_Blue_Pin);
 8000552:	687b      	ldr	r3, [r7, #4]
 8000554:	79da      	ldrb	r2, [r3, #7]
 8000556:	687b      	ldr	r3, [r7, #4]
 8000558:	799b      	ldrb	r3, [r3, #6]
 800055a:	4619      	mov	r1, r3
 800055c:	4610      	mov	r0, r2
 800055e:	f7ff ffa6 	bl	80004ae <RGB_init_led>
}
 8000562:	bf00      	nop
 8000564:	3708      	adds	r7, #8
 8000566:	46bd      	mov	sp, r7
 8000568:	bd80      	pop	{r7, pc}

0800056a <RGB_voidLedToggle>:
			REF_RGBObj->RGB_Blue_State = RGB_LED_OFF;
			break;
		}
}
void RGB_voidLedToggle(RGB_Config_t* REF_RGBObj , RGB_Leds_t RGP_Led)
{
 800056a:	b580      	push	{r7, lr}
 800056c:	b082      	sub	sp, #8
 800056e:	af00      	add	r7, sp, #0
 8000570:	6078      	str	r0, [r7, #4]
 8000572:	460b      	mov	r3, r1
 8000574:	70fb      	strb	r3, [r7, #3]
	switch(RGP_Led)
 8000576:	78fb      	ldrb	r3, [r7, #3]
 8000578:	2b02      	cmp	r3, #2
 800057a:	d046      	beq.n	800060a <RGB_voidLedToggle+0xa0>
 800057c:	2b02      	cmp	r3, #2
 800057e:	dc69      	bgt.n	8000654 <RGB_voidLedToggle+0xea>
 8000580:	2b00      	cmp	r3, #0
 8000582:	d002      	beq.n	800058a <RGB_voidLedToggle+0x20>
 8000584:	2b01      	cmp	r3, #1
 8000586:	d020      	beq.n	80005ca <RGB_voidLedToggle+0x60>
					GPIO_voidSetPinValue(REF_RGBObj->RGB_Blue_Port, REF_RGBObj->RGB_Blue_Pin, RGB_LED_ON);
					REF_RGBObj->RGB_Blue_State = RGB_LED_ON;
				}
				break;
			}
}
 8000588:	e064      	b.n	8000654 <RGB_voidLedToggle+0xea>
				if(REF_RGBObj->RGB_Red_State == RGB_LED_ON)
 800058a:	687b      	ldr	r3, [r7, #4]
 800058c:	789b      	ldrb	r3, [r3, #2]
 800058e:	2b00      	cmp	r3, #0
 8000590:	d10b      	bne.n	80005aa <RGB_voidLedToggle+0x40>
					GPIO_voidSetPinValue(REF_RGBObj->RGB_Red_Port, REF_RGBObj->RGB_Red_Pin, RGB_LED_OFF);
 8000592:	687b      	ldr	r3, [r7, #4]
 8000594:	7858      	ldrb	r0, [r3, #1]
 8000596:	687b      	ldr	r3, [r7, #4]
 8000598:	781b      	ldrb	r3, [r3, #0]
 800059a:	2201      	movs	r2, #1
 800059c:	4619      	mov	r1, r3
 800059e:	f000 fbb5 	bl	8000d0c <GPIO_voidSetPinValue>
					REF_RGBObj->RGB_Red_State = RGB_LED_OFF;
 80005a2:	687b      	ldr	r3, [r7, #4]
 80005a4:	2201      	movs	r2, #1
 80005a6:	709a      	strb	r2, [r3, #2]
				break;
 80005a8:	e04f      	b.n	800064a <RGB_voidLedToggle+0xe0>
				else if (REF_RGBObj->RGB_Red_State == RGB_LED_OFF)
 80005aa:	687b      	ldr	r3, [r7, #4]
 80005ac:	789b      	ldrb	r3, [r3, #2]
 80005ae:	2b01      	cmp	r3, #1
 80005b0:	d14b      	bne.n	800064a <RGB_voidLedToggle+0xe0>
					GPIO_voidSetPinValue(REF_RGBObj->RGB_Red_Port, REF_RGBObj->RGB_Red_Pin, RGB_LED_ON);
 80005b2:	687b      	ldr	r3, [r7, #4]
 80005b4:	7858      	ldrb	r0, [r3, #1]
 80005b6:	687b      	ldr	r3, [r7, #4]
 80005b8:	781b      	ldrb	r3, [r3, #0]
 80005ba:	2200      	movs	r2, #0
 80005bc:	4619      	mov	r1, r3
 80005be:	f000 fba5 	bl	8000d0c <GPIO_voidSetPinValue>
					REF_RGBObj->RGB_Red_State = RGB_LED_ON;
 80005c2:	687b      	ldr	r3, [r7, #4]
 80005c4:	2200      	movs	r2, #0
 80005c6:	709a      	strb	r2, [r3, #2]
				break;
 80005c8:	e03f      	b.n	800064a <RGB_voidLedToggle+0xe0>
				if(REF_RGBObj->RGB_Green_State == RGB_LED_ON)
 80005ca:	687b      	ldr	r3, [r7, #4]
 80005cc:	795b      	ldrb	r3, [r3, #5]
 80005ce:	2b00      	cmp	r3, #0
 80005d0:	d10b      	bne.n	80005ea <RGB_voidLedToggle+0x80>
					GPIO_voidSetPinValue(REF_RGBObj->RGB_Green_Port, REF_RGBObj->RGB_Green_Pin, RGB_LED_OFF);
 80005d2:	687b      	ldr	r3, [r7, #4]
 80005d4:	7918      	ldrb	r0, [r3, #4]
 80005d6:	687b      	ldr	r3, [r7, #4]
 80005d8:	78db      	ldrb	r3, [r3, #3]
 80005da:	2201      	movs	r2, #1
 80005dc:	4619      	mov	r1, r3
 80005de:	f000 fb95 	bl	8000d0c <GPIO_voidSetPinValue>
					REF_RGBObj->RGB_Green_State = RGB_LED_OFF;
 80005e2:	687b      	ldr	r3, [r7, #4]
 80005e4:	2201      	movs	r2, #1
 80005e6:	715a      	strb	r2, [r3, #5]
				break;
 80005e8:	e031      	b.n	800064e <RGB_voidLedToggle+0xe4>
				else if (REF_RGBObj->RGB_Green_State == RGB_LED_OFF)
 80005ea:	687b      	ldr	r3, [r7, #4]
 80005ec:	795b      	ldrb	r3, [r3, #5]
 80005ee:	2b01      	cmp	r3, #1
 80005f0:	d12d      	bne.n	800064e <RGB_voidLedToggle+0xe4>
					GPIO_voidSetPinValue(REF_RGBObj->RGB_Green_Port, REF_RGBObj->RGB_Green_Pin, RGB_LED_ON);
 80005f2:	687b      	ldr	r3, [r7, #4]
 80005f4:	7918      	ldrb	r0, [r3, #4]
 80005f6:	687b      	ldr	r3, [r7, #4]
 80005f8:	78db      	ldrb	r3, [r3, #3]
 80005fa:	2200      	movs	r2, #0
 80005fc:	4619      	mov	r1, r3
 80005fe:	f000 fb85 	bl	8000d0c <GPIO_voidSetPinValue>
					REF_RGBObj->RGB_Green_State = RGB_LED_ON;
 8000602:	687b      	ldr	r3, [r7, #4]
 8000604:	2200      	movs	r2, #0
 8000606:	715a      	strb	r2, [r3, #5]
				break;
 8000608:	e021      	b.n	800064e <RGB_voidLedToggle+0xe4>
				if(REF_RGBObj->RGB_Blue_State == RGB_LED_ON)
 800060a:	687b      	ldr	r3, [r7, #4]
 800060c:	7a1b      	ldrb	r3, [r3, #8]
 800060e:	2b00      	cmp	r3, #0
 8000610:	d10b      	bne.n	800062a <RGB_voidLedToggle+0xc0>
					GPIO_voidSetPinValue(REF_RGBObj->RGB_Blue_Port, REF_RGBObj->RGB_Blue_Pin, RGB_LED_OFF);
 8000612:	687b      	ldr	r3, [r7, #4]
 8000614:	79d8      	ldrb	r0, [r3, #7]
 8000616:	687b      	ldr	r3, [r7, #4]
 8000618:	799b      	ldrb	r3, [r3, #6]
 800061a:	2201      	movs	r2, #1
 800061c:	4619      	mov	r1, r3
 800061e:	f000 fb75 	bl	8000d0c <GPIO_voidSetPinValue>
					REF_RGBObj->RGB_Blue_State = RGB_LED_OFF;
 8000622:	687b      	ldr	r3, [r7, #4]
 8000624:	2201      	movs	r2, #1
 8000626:	721a      	strb	r2, [r3, #8]
				break;
 8000628:	e013      	b.n	8000652 <RGB_voidLedToggle+0xe8>
				else if (REF_RGBObj->RGB_Blue_State == RGB_LED_OFF)
 800062a:	687b      	ldr	r3, [r7, #4]
 800062c:	7a1b      	ldrb	r3, [r3, #8]
 800062e:	2b01      	cmp	r3, #1
 8000630:	d10f      	bne.n	8000652 <RGB_voidLedToggle+0xe8>
					GPIO_voidSetPinValue(REF_RGBObj->RGB_Blue_Port, REF_RGBObj->RGB_Blue_Pin, RGB_LED_ON);
 8000632:	687b      	ldr	r3, [r7, #4]
 8000634:	79d8      	ldrb	r0, [r3, #7]
 8000636:	687b      	ldr	r3, [r7, #4]
 8000638:	799b      	ldrb	r3, [r3, #6]
 800063a:	2200      	movs	r2, #0
 800063c:	4619      	mov	r1, r3
 800063e:	f000 fb65 	bl	8000d0c <GPIO_voidSetPinValue>
					REF_RGBObj->RGB_Blue_State = RGB_LED_ON;
 8000642:	687b      	ldr	r3, [r7, #4]
 8000644:	2200      	movs	r2, #0
 8000646:	721a      	strb	r2, [r3, #8]
				break;
 8000648:	e003      	b.n	8000652 <RGB_voidLedToggle+0xe8>
				break;
 800064a:	bf00      	nop
 800064c:	e002      	b.n	8000654 <RGB_voidLedToggle+0xea>
				break;
 800064e:	bf00      	nop
 8000650:	e000      	b.n	8000654 <RGB_voidLedToggle+0xea>
				break;
 8000652:	bf00      	nop
}
 8000654:	bf00      	nop
 8000656:	3708      	adds	r7, #8
 8000658:	46bd      	mov	sp, r7
 800065a:	bd80      	pop	{r7, pc}

0800065c <MEXTI_voidInit>:
 *********************************************************************************************************************/

/**********************************************************************************************************************
 *  GLOBAL FUNCTIONS
 *********************************************************************************************************************/
void MEXTI_voidInit(MEXTI_CONFIG_t* Copy_tEXTIConfig ,void (*pCallBackFunction)(void)){
 800065c:	b580      	push	{r7, lr}
 800065e:	b082      	sub	sp, #8
 8000660:	af00      	add	r7, sp, #0
 8000662:	6078      	str	r0, [r7, #4]
 8000664:	6039      	str	r1, [r7, #0]

	/*Enable EXTI Line mode interrupt or event*/
	switch(Copy_tEXTIConfig->MEXTI_Mode)
 8000666:	687b      	ldr	r3, [r7, #4]
 8000668:	78db      	ldrb	r3, [r3, #3]
 800066a:	2b00      	cmp	r3, #0
 800066c:	d002      	beq.n	8000674 <MEXTI_voidInit+0x18>
 800066e:	2b01      	cmp	r3, #1
 8000670:	d00c      	beq.n	800068c <MEXTI_voidInit+0x30>
			break;
		case MEXTI_EVENT_MODE:
			SET_BIT(EXTI->EMR,Copy_tEXTIConfig->MEXTI_Line);
			break;
		default:
			break;
 8000672:	e017      	b.n	80006a4 <MEXTI_voidInit+0x48>
			SET_BIT(EXTI->IMR,Copy_tEXTIConfig->MEXTI_Line);
 8000674:	4b7a      	ldr	r3, [pc, #488]	; (8000860 <MEXTI_voidInit+0x204>)
 8000676:	681b      	ldr	r3, [r3, #0]
 8000678:	687a      	ldr	r2, [r7, #4]
 800067a:	7852      	ldrb	r2, [r2, #1]
 800067c:	4611      	mov	r1, r2
 800067e:	2201      	movs	r2, #1
 8000680:	408a      	lsls	r2, r1
 8000682:	4611      	mov	r1, r2
 8000684:	4a76      	ldr	r2, [pc, #472]	; (8000860 <MEXTI_voidInit+0x204>)
 8000686:	430b      	orrs	r3, r1
 8000688:	6013      	str	r3, [r2, #0]
			break;
 800068a:	e00b      	b.n	80006a4 <MEXTI_voidInit+0x48>
			SET_BIT(EXTI->EMR,Copy_tEXTIConfig->MEXTI_Line);
 800068c:	4b74      	ldr	r3, [pc, #464]	; (8000860 <MEXTI_voidInit+0x204>)
 800068e:	685b      	ldr	r3, [r3, #4]
 8000690:	687a      	ldr	r2, [r7, #4]
 8000692:	7852      	ldrb	r2, [r2, #1]
 8000694:	4611      	mov	r1, r2
 8000696:	2201      	movs	r2, #1
 8000698:	408a      	lsls	r2, r1
 800069a:	4611      	mov	r1, r2
 800069c:	4a70      	ldr	r2, [pc, #448]	; (8000860 <MEXTI_voidInit+0x204>)
 800069e:	430b      	orrs	r3, r1
 80006a0:	6053      	str	r3, [r2, #4]
			break;
 80006a2:	bf00      	nop
	}

	/*Set Notification function*/
	EXTI_pNotificationFunction[Copy_tEXTIConfig->MEXTI_Line] = pCallBackFunction;
 80006a4:	687b      	ldr	r3, [r7, #4]
 80006a6:	785b      	ldrb	r3, [r3, #1]
 80006a8:	4619      	mov	r1, r3
 80006aa:	4a6e      	ldr	r2, [pc, #440]	; (8000864 <MEXTI_voidInit+0x208>)
 80006ac:	683b      	ldr	r3, [r7, #0]
 80006ae:	f842 3021 	str.w	r3, [r2, r1, lsl #2]

	/*Set Sense Signal mode RISING, FALLING, ONCHANGE */
	switch(Copy_tEXTIConfig->MEXTI_SenseSignal){
 80006b2:	687b      	ldr	r3, [r7, #4]
 80006b4:	789b      	ldrb	r3, [r3, #2]
 80006b6:	2b02      	cmp	r3, #2
 80006b8:	d036      	beq.n	8000728 <MEXTI_voidInit+0xcc>
 80006ba:	2b02      	cmp	r3, #2
 80006bc:	dc4b      	bgt.n	8000756 <MEXTI_voidInit+0xfa>
 80006be:	2b00      	cmp	r3, #0
 80006c0:	d002      	beq.n	80006c8 <MEXTI_voidInit+0x6c>
 80006c2:	2b01      	cmp	r3, #1
 80006c4:	d018      	beq.n	80006f8 <MEXTI_voidInit+0x9c>
		case MEXTI_ONCHANGE:
			SET_BIT(EXTI->RTSR,Copy_tEXTIConfig->MEXTI_Line);
			SET_BIT(EXTI->FTSR,Copy_tEXTIConfig->MEXTI_Line);
			break;
		default:
			break;
 80006c6:	e046      	b.n	8000756 <MEXTI_voidInit+0xfa>
			SET_BIT(EXTI->RTSR,Copy_tEXTIConfig->MEXTI_Line);
 80006c8:	4b65      	ldr	r3, [pc, #404]	; (8000860 <MEXTI_voidInit+0x204>)
 80006ca:	689b      	ldr	r3, [r3, #8]
 80006cc:	687a      	ldr	r2, [r7, #4]
 80006ce:	7852      	ldrb	r2, [r2, #1]
 80006d0:	4611      	mov	r1, r2
 80006d2:	2201      	movs	r2, #1
 80006d4:	408a      	lsls	r2, r1
 80006d6:	4611      	mov	r1, r2
 80006d8:	4a61      	ldr	r2, [pc, #388]	; (8000860 <MEXTI_voidInit+0x204>)
 80006da:	430b      	orrs	r3, r1
 80006dc:	6093      	str	r3, [r2, #8]
			CLR_BIT(EXTI->FTSR,Copy_tEXTIConfig->MEXTI_Line);
 80006de:	4b60      	ldr	r3, [pc, #384]	; (8000860 <MEXTI_voidInit+0x204>)
 80006e0:	68db      	ldr	r3, [r3, #12]
 80006e2:	687a      	ldr	r2, [r7, #4]
 80006e4:	7852      	ldrb	r2, [r2, #1]
 80006e6:	4611      	mov	r1, r2
 80006e8:	2201      	movs	r2, #1
 80006ea:	408a      	lsls	r2, r1
 80006ec:	43d2      	mvns	r2, r2
 80006ee:	4611      	mov	r1, r2
 80006f0:	4a5b      	ldr	r2, [pc, #364]	; (8000860 <MEXTI_voidInit+0x204>)
 80006f2:	400b      	ands	r3, r1
 80006f4:	60d3      	str	r3, [r2, #12]
			break;
 80006f6:	e02f      	b.n	8000758 <MEXTI_voidInit+0xfc>
			SET_BIT(EXTI->FTSR,Copy_tEXTIConfig->MEXTI_Line);
 80006f8:	4b59      	ldr	r3, [pc, #356]	; (8000860 <MEXTI_voidInit+0x204>)
 80006fa:	68db      	ldr	r3, [r3, #12]
 80006fc:	687a      	ldr	r2, [r7, #4]
 80006fe:	7852      	ldrb	r2, [r2, #1]
 8000700:	4611      	mov	r1, r2
 8000702:	2201      	movs	r2, #1
 8000704:	408a      	lsls	r2, r1
 8000706:	4611      	mov	r1, r2
 8000708:	4a55      	ldr	r2, [pc, #340]	; (8000860 <MEXTI_voidInit+0x204>)
 800070a:	430b      	orrs	r3, r1
 800070c:	60d3      	str	r3, [r2, #12]
			CLR_BIT(EXTI->RTSR,Copy_tEXTIConfig->MEXTI_Line);
 800070e:	4b54      	ldr	r3, [pc, #336]	; (8000860 <MEXTI_voidInit+0x204>)
 8000710:	689b      	ldr	r3, [r3, #8]
 8000712:	687a      	ldr	r2, [r7, #4]
 8000714:	7852      	ldrb	r2, [r2, #1]
 8000716:	4611      	mov	r1, r2
 8000718:	2201      	movs	r2, #1
 800071a:	408a      	lsls	r2, r1
 800071c:	43d2      	mvns	r2, r2
 800071e:	4611      	mov	r1, r2
 8000720:	4a4f      	ldr	r2, [pc, #316]	; (8000860 <MEXTI_voidInit+0x204>)
 8000722:	400b      	ands	r3, r1
 8000724:	6093      	str	r3, [r2, #8]
			break;
 8000726:	e017      	b.n	8000758 <MEXTI_voidInit+0xfc>
			SET_BIT(EXTI->RTSR,Copy_tEXTIConfig->MEXTI_Line);
 8000728:	4b4d      	ldr	r3, [pc, #308]	; (8000860 <MEXTI_voidInit+0x204>)
 800072a:	689b      	ldr	r3, [r3, #8]
 800072c:	687a      	ldr	r2, [r7, #4]
 800072e:	7852      	ldrb	r2, [r2, #1]
 8000730:	4611      	mov	r1, r2
 8000732:	2201      	movs	r2, #1
 8000734:	408a      	lsls	r2, r1
 8000736:	4611      	mov	r1, r2
 8000738:	4a49      	ldr	r2, [pc, #292]	; (8000860 <MEXTI_voidInit+0x204>)
 800073a:	430b      	orrs	r3, r1
 800073c:	6093      	str	r3, [r2, #8]
			SET_BIT(EXTI->FTSR,Copy_tEXTIConfig->MEXTI_Line);
 800073e:	4b48      	ldr	r3, [pc, #288]	; (8000860 <MEXTI_voidInit+0x204>)
 8000740:	68db      	ldr	r3, [r3, #12]
 8000742:	687a      	ldr	r2, [r7, #4]
 8000744:	7852      	ldrb	r2, [r2, #1]
 8000746:	4611      	mov	r1, r2
 8000748:	2201      	movs	r2, #1
 800074a:	408a      	lsls	r2, r1
 800074c:	4611      	mov	r1, r2
 800074e:	4a44      	ldr	r2, [pc, #272]	; (8000860 <MEXTI_voidInit+0x204>)
 8000750:	430b      	orrs	r3, r1
 8000752:	60d3      	str	r3, [r2, #12]
			break;
 8000754:	e000      	b.n	8000758 <MEXTI_voidInit+0xfc>
			break;
 8000756:	bf00      	nop
	}
	/* Enable SYSCFG Peripheral Clock*/
	RCC_voidEnablePeripheralClock(RCC_APB2, RCC_APB2_SYSCFGEN);
 8000758:	210e      	movs	r1, #14
 800075a:	2002      	movs	r0, #2
 800075c:	f000 fc2e 	bl	8000fbc <RCC_voidEnablePeripheralClock>
	/*Set EXTI Port PORTA, PORTB, PORTC*/
	if(Copy_tEXTIConfig->MEXTI_Line < 4 && Copy_tEXTIConfig->MEXTI_Line >= 0)
 8000760:	687b      	ldr	r3, [r7, #4]
 8000762:	785b      	ldrb	r3, [r3, #1]
 8000764:	2b03      	cmp	r3, #3
 8000766:	d80e      	bhi.n	8000786 <MEXTI_voidInit+0x12a>
	{
		SYSCFG_EXTICR1 |= (Copy_tEXTIConfig->MEXTI_Port << (Copy_tEXTIConfig->MEXTI_Line*4));
 8000768:	4b3f      	ldr	r3, [pc, #252]	; (8000868 <MEXTI_voidInit+0x20c>)
 800076a:	681b      	ldr	r3, [r3, #0]
 800076c:	687a      	ldr	r2, [r7, #4]
 800076e:	7812      	ldrb	r2, [r2, #0]
 8000770:	4611      	mov	r1, r2
 8000772:	687a      	ldr	r2, [r7, #4]
 8000774:	7852      	ldrb	r2, [r2, #1]
 8000776:	0092      	lsls	r2, r2, #2
 8000778:	fa01 f202 	lsl.w	r2, r1, r2
 800077c:	4611      	mov	r1, r2
 800077e:	4a3a      	ldr	r2, [pc, #232]	; (8000868 <MEXTI_voidInit+0x20c>)
 8000780:	430b      	orrs	r3, r1
 8000782:	6013      	str	r3, [r2, #0]
 8000784:	e043      	b.n	800080e <MEXTI_voidInit+0x1b2>

	}
	else if(Copy_tEXTIConfig->MEXTI_Line < 8 && Copy_tEXTIConfig->MEXTI_Line >= 4){
 8000786:	687b      	ldr	r3, [r7, #4]
 8000788:	785b      	ldrb	r3, [r3, #1]
 800078a:	2b07      	cmp	r3, #7
 800078c:	d812      	bhi.n	80007b4 <MEXTI_voidInit+0x158>
 800078e:	687b      	ldr	r3, [r7, #4]
 8000790:	785b      	ldrb	r3, [r3, #1]
 8000792:	2b03      	cmp	r3, #3
 8000794:	d90e      	bls.n	80007b4 <MEXTI_voidInit+0x158>
		SYSCFG_EXTICR2 |= (Copy_tEXTIConfig->MEXTI_Port << (Copy_tEXTIConfig->MEXTI_Line*4));
 8000796:	4b35      	ldr	r3, [pc, #212]	; (800086c <MEXTI_voidInit+0x210>)
 8000798:	681b      	ldr	r3, [r3, #0]
 800079a:	687a      	ldr	r2, [r7, #4]
 800079c:	7812      	ldrb	r2, [r2, #0]
 800079e:	4611      	mov	r1, r2
 80007a0:	687a      	ldr	r2, [r7, #4]
 80007a2:	7852      	ldrb	r2, [r2, #1]
 80007a4:	0092      	lsls	r2, r2, #2
 80007a6:	fa01 f202 	lsl.w	r2, r1, r2
 80007aa:	4611      	mov	r1, r2
 80007ac:	4a2f      	ldr	r2, [pc, #188]	; (800086c <MEXTI_voidInit+0x210>)
 80007ae:	430b      	orrs	r3, r1
 80007b0:	6013      	str	r3, [r2, #0]
 80007b2:	e02c      	b.n	800080e <MEXTI_voidInit+0x1b2>
	}
	else if(Copy_tEXTIConfig->MEXTI_Line < 12 && Copy_tEXTIConfig->MEXTI_Line >= 8){
 80007b4:	687b      	ldr	r3, [r7, #4]
 80007b6:	785b      	ldrb	r3, [r3, #1]
 80007b8:	2b0b      	cmp	r3, #11
 80007ba:	d812      	bhi.n	80007e2 <MEXTI_voidInit+0x186>
 80007bc:	687b      	ldr	r3, [r7, #4]
 80007be:	785b      	ldrb	r3, [r3, #1]
 80007c0:	2b07      	cmp	r3, #7
 80007c2:	d90e      	bls.n	80007e2 <MEXTI_voidInit+0x186>
		SYSCFG_EXTICR3 |= (Copy_tEXTIConfig->MEXTI_Port << (Copy_tEXTIConfig->MEXTI_Line*4));
 80007c4:	4b2a      	ldr	r3, [pc, #168]	; (8000870 <MEXTI_voidInit+0x214>)
 80007c6:	681b      	ldr	r3, [r3, #0]
 80007c8:	687a      	ldr	r2, [r7, #4]
 80007ca:	7812      	ldrb	r2, [r2, #0]
 80007cc:	4611      	mov	r1, r2
 80007ce:	687a      	ldr	r2, [r7, #4]
 80007d0:	7852      	ldrb	r2, [r2, #1]
 80007d2:	0092      	lsls	r2, r2, #2
 80007d4:	fa01 f202 	lsl.w	r2, r1, r2
 80007d8:	4611      	mov	r1, r2
 80007da:	4a25      	ldr	r2, [pc, #148]	; (8000870 <MEXTI_voidInit+0x214>)
 80007dc:	430b      	orrs	r3, r1
 80007de:	6013      	str	r3, [r2, #0]
 80007e0:	e015      	b.n	800080e <MEXTI_voidInit+0x1b2>
	}
	else if(Copy_tEXTIConfig->MEXTI_Line < 16 && Copy_tEXTIConfig->MEXTI_Line >= 12){
 80007e2:	687b      	ldr	r3, [r7, #4]
 80007e4:	785b      	ldrb	r3, [r3, #1]
 80007e6:	2b0f      	cmp	r3, #15
 80007e8:	d811      	bhi.n	800080e <MEXTI_voidInit+0x1b2>
 80007ea:	687b      	ldr	r3, [r7, #4]
 80007ec:	785b      	ldrb	r3, [r3, #1]
 80007ee:	2b0b      	cmp	r3, #11
 80007f0:	d90d      	bls.n	800080e <MEXTI_voidInit+0x1b2>
		SYSCFG_EXTICR4 |= (Copy_tEXTIConfig->MEXTI_Port << (Copy_tEXTIConfig->MEXTI_Line*4));
 80007f2:	4b20      	ldr	r3, [pc, #128]	; (8000874 <MEXTI_voidInit+0x218>)
 80007f4:	681b      	ldr	r3, [r3, #0]
 80007f6:	687a      	ldr	r2, [r7, #4]
 80007f8:	7812      	ldrb	r2, [r2, #0]
 80007fa:	4611      	mov	r1, r2
 80007fc:	687a      	ldr	r2, [r7, #4]
 80007fe:	7852      	ldrb	r2, [r2, #1]
 8000800:	0092      	lsls	r2, r2, #2
 8000802:	fa01 f202 	lsl.w	r2, r1, r2
 8000806:	4611      	mov	r1, r2
 8000808:	4a1a      	ldr	r2, [pc, #104]	; (8000874 <MEXTI_voidInit+0x218>)
 800080a:	430b      	orrs	r3, r1
 800080c:	6013      	str	r3, [r2, #0]
	}

	/*Enable NVIC Mask for EXTI Line*/
	if(Copy_tEXTIConfig->MEXTI_Line <5){
 800080e:	687b      	ldr	r3, [r7, #4]
 8000810:	785b      	ldrb	r3, [r3, #1]
 8000812:	2b04      	cmp	r3, #4
 8000814:	d808      	bhi.n	8000828 <MEXTI_voidInit+0x1cc>
		MNVIC_voidEnableIRQ(EXTI0_IRQn+Copy_tEXTIConfig->MEXTI_Line);
 8000816:	687b      	ldr	r3, [r7, #4]
 8000818:	785b      	ldrb	r3, [r3, #1]
 800081a:	3306      	adds	r3, #6
 800081c:	b2db      	uxtb	r3, r3
 800081e:	b25b      	sxtb	r3, r3
 8000820:	4618      	mov	r0, r3
 8000822:	f000 fb33 	bl	8000e8c <MNVIC_voidEnableIRQ>
		MNVIC_voidEnableIRQ(EXTI9_5_IRQn);
	}
	else if(Copy_tEXTIConfig->MEXTI_Line >= 10 && Copy_tEXTIConfig->MEXTI_Line <= 15){
		MNVIC_voidEnableIRQ(EXTI15_10_IRQn);
	}
}
 8000826:	e016      	b.n	8000856 <MEXTI_voidInit+0x1fa>
	else if(Copy_tEXTIConfig->MEXTI_Line >= 5 && Copy_tEXTIConfig->MEXTI_Line <= 9){
 8000828:	687b      	ldr	r3, [r7, #4]
 800082a:	785b      	ldrb	r3, [r3, #1]
 800082c:	2b04      	cmp	r3, #4
 800082e:	d907      	bls.n	8000840 <MEXTI_voidInit+0x1e4>
 8000830:	687b      	ldr	r3, [r7, #4]
 8000832:	785b      	ldrb	r3, [r3, #1]
 8000834:	2b09      	cmp	r3, #9
 8000836:	d803      	bhi.n	8000840 <MEXTI_voidInit+0x1e4>
		MNVIC_voidEnableIRQ(EXTI9_5_IRQn);
 8000838:	2017      	movs	r0, #23
 800083a:	f000 fb27 	bl	8000e8c <MNVIC_voidEnableIRQ>
}
 800083e:	e00a      	b.n	8000856 <MEXTI_voidInit+0x1fa>
	else if(Copy_tEXTIConfig->MEXTI_Line >= 10 && Copy_tEXTIConfig->MEXTI_Line <= 15){
 8000840:	687b      	ldr	r3, [r7, #4]
 8000842:	785b      	ldrb	r3, [r3, #1]
 8000844:	2b09      	cmp	r3, #9
 8000846:	d906      	bls.n	8000856 <MEXTI_voidInit+0x1fa>
 8000848:	687b      	ldr	r3, [r7, #4]
 800084a:	785b      	ldrb	r3, [r3, #1]
 800084c:	2b0f      	cmp	r3, #15
 800084e:	d802      	bhi.n	8000856 <MEXTI_voidInit+0x1fa>
		MNVIC_voidEnableIRQ(EXTI15_10_IRQn);
 8000850:	2028      	movs	r0, #40	; 0x28
 8000852:	f000 fb1b 	bl	8000e8c <MNVIC_voidEnableIRQ>
}
 8000856:	bf00      	nop
 8000858:	3708      	adds	r7, #8
 800085a:	46bd      	mov	sp, r7
 800085c:	bd80      	pop	{r7, pc}
 800085e:	bf00      	nop
 8000860:	40013c00 	.word	0x40013c00
 8000864:	2000003c 	.word	0x2000003c
 8000868:	40013808 	.word	0x40013808
 800086c:	4001380c 	.word	0x4001380c
 8000870:	40013810 	.word	0x40013810
 8000874:	40013814 	.word	0x40013814

08000878 <MEXTI_voidClearPendingFlag>:

void MEXTI_voidSetCallBack(MEXTI_INTERRUPT_LINE_t Copy_tInterruptLine, void (*pCallBackFunction)(void)){
    EXTI_pNotificationFunction[Copy_tInterruptLine] = pCallBackFunction;
}

void MEXTI_voidClearPendingFlag(MEXTI_INTERRUPT_LINE_t Copy_tInterruptLine){
 8000878:	b480      	push	{r7}
 800087a:	b083      	sub	sp, #12
 800087c:	af00      	add	r7, sp, #0
 800087e:	4603      	mov	r3, r0
 8000880:	71fb      	strb	r3, [r7, #7]
	SET_BIT(EXTI->PR,Copy_tInterruptLine);
 8000882:	4b08      	ldr	r3, [pc, #32]	; (80008a4 <MEXTI_voidClearPendingFlag+0x2c>)
 8000884:	695b      	ldr	r3, [r3, #20]
 8000886:	79fa      	ldrb	r2, [r7, #7]
 8000888:	2101      	movs	r1, #1
 800088a:	fa01 f202 	lsl.w	r2, r1, r2
 800088e:	4611      	mov	r1, r2
 8000890:	4a04      	ldr	r2, [pc, #16]	; (80008a4 <MEXTI_voidClearPendingFlag+0x2c>)
 8000892:	430b      	orrs	r3, r1
 8000894:	6153      	str	r3, [r2, #20]
}
 8000896:	bf00      	nop
 8000898:	370c      	adds	r7, #12
 800089a:	46bd      	mov	sp, r7
 800089c:	f85d 7b04 	ldr.w	r7, [sp], #4
 80008a0:	4770      	bx	lr
 80008a2:	bf00      	nop
 80008a4:	40013c00 	.word	0x40013c00

080008a8 <MEXTI_u8GetPendingFlag>:

u8 MEXTI_u8GetPendingFlag(MEXTI_INTERRUPT_LINE_t Copy_tInterruptLine)
{
 80008a8:	b480      	push	{r7}
 80008aa:	b083      	sub	sp, #12
 80008ac:	af00      	add	r7, sp, #0
 80008ae:	4603      	mov	r3, r0
 80008b0:	71fb      	strb	r3, [r7, #7]
	return GET_BIT(EXTI->PR,Copy_tInterruptLine);
 80008b2:	4b07      	ldr	r3, [pc, #28]	; (80008d0 <MEXTI_u8GetPendingFlag+0x28>)
 80008b4:	695a      	ldr	r2, [r3, #20]
 80008b6:	79fb      	ldrb	r3, [r7, #7]
 80008b8:	fa22 f303 	lsr.w	r3, r2, r3
 80008bc:	b2db      	uxtb	r3, r3
 80008be:	f003 0301 	and.w	r3, r3, #1
 80008c2:	b2db      	uxtb	r3, r3
}
 80008c4:	4618      	mov	r0, r3
 80008c6:	370c      	adds	r7, #12
 80008c8:	46bd      	mov	sp, r7
 80008ca:	f85d 7b04 	ldr.w	r7, [sp], #4
 80008ce:	4770      	bx	lr
 80008d0:	40013c00 	.word	0x40013c00

080008d4 <EXTI0_IRQHandler>:


/*********************************************EXTI0_15_IRQHandlers******************************/
void EXTI0_IRQHandler(void){
 80008d4:	b580      	push	{r7, lr}
 80008d6:	af00      	add	r7, sp, #0
    if(EXTI_pNotificationFunction[0] != NULL){
 80008d8:	4b05      	ldr	r3, [pc, #20]	; (80008f0 <EXTI0_IRQHandler+0x1c>)
 80008da:	681b      	ldr	r3, [r3, #0]
 80008dc:	2b00      	cmp	r3, #0
 80008de:	d002      	beq.n	80008e6 <EXTI0_IRQHandler+0x12>
        EXTI_pNotificationFunction[0]();
 80008e0:	4b03      	ldr	r3, [pc, #12]	; (80008f0 <EXTI0_IRQHandler+0x1c>)
 80008e2:	681b      	ldr	r3, [r3, #0]
 80008e4:	4798      	blx	r3
    }
    MEXTI_voidClearPendingFlag(MEXTI_EXTI0);
 80008e6:	2000      	movs	r0, #0
 80008e8:	f7ff ffc6 	bl	8000878 <MEXTI_voidClearPendingFlag>
}
 80008ec:	bf00      	nop
 80008ee:	bd80      	pop	{r7, pc}
 80008f0:	2000003c 	.word	0x2000003c

080008f4 <EXTI1_IRQHandler>:

void EXTI1_IRQHandler(void){
 80008f4:	b580      	push	{r7, lr}
 80008f6:	af00      	add	r7, sp, #0
    if(EXTI_pNotificationFunction[1] != NULL){
 80008f8:	4b05      	ldr	r3, [pc, #20]	; (8000910 <EXTI1_IRQHandler+0x1c>)
 80008fa:	685b      	ldr	r3, [r3, #4]
 80008fc:	2b00      	cmp	r3, #0
 80008fe:	d002      	beq.n	8000906 <EXTI1_IRQHandler+0x12>
        EXTI_pNotificationFunction[1]();
 8000900:	4b03      	ldr	r3, [pc, #12]	; (8000910 <EXTI1_IRQHandler+0x1c>)
 8000902:	685b      	ldr	r3, [r3, #4]
 8000904:	4798      	blx	r3
    }
    MEXTI_voidClearPendingFlag(MEXTI_EXTI1);
 8000906:	2001      	movs	r0, #1
 8000908:	f7ff ffb6 	bl	8000878 <MEXTI_voidClearPendingFlag>
}
 800090c:	bf00      	nop
 800090e:	bd80      	pop	{r7, pc}
 8000910:	2000003c 	.word	0x2000003c

08000914 <EXTI2_IRQHandler>:

void EXTI2_IRQHandler(void){
 8000914:	b580      	push	{r7, lr}
 8000916:	af00      	add	r7, sp, #0
    if(EXTI_pNotificationFunction[2] != NULL){
 8000918:	4b05      	ldr	r3, [pc, #20]	; (8000930 <EXTI2_IRQHandler+0x1c>)
 800091a:	689b      	ldr	r3, [r3, #8]
 800091c:	2b00      	cmp	r3, #0
 800091e:	d002      	beq.n	8000926 <EXTI2_IRQHandler+0x12>
        EXTI_pNotificationFunction[2]();
 8000920:	4b03      	ldr	r3, [pc, #12]	; (8000930 <EXTI2_IRQHandler+0x1c>)
 8000922:	689b      	ldr	r3, [r3, #8]
 8000924:	4798      	blx	r3
    }
    MEXTI_voidClearPendingFlag(MEXTI_EXTI2);
 8000926:	2002      	movs	r0, #2
 8000928:	f7ff ffa6 	bl	8000878 <MEXTI_voidClearPendingFlag>
}
 800092c:	bf00      	nop
 800092e:	bd80      	pop	{r7, pc}
 8000930:	2000003c 	.word	0x2000003c

08000934 <EXTI3_IRQHandler>:

void EXTI3_IRQHandler(void){
 8000934:	b580      	push	{r7, lr}
 8000936:	af00      	add	r7, sp, #0
    if(EXTI_pNotificationFunction[3] != NULL){
 8000938:	4b05      	ldr	r3, [pc, #20]	; (8000950 <EXTI3_IRQHandler+0x1c>)
 800093a:	68db      	ldr	r3, [r3, #12]
 800093c:	2b00      	cmp	r3, #0
 800093e:	d002      	beq.n	8000946 <EXTI3_IRQHandler+0x12>
        EXTI_pNotificationFunction[3]();
 8000940:	4b03      	ldr	r3, [pc, #12]	; (8000950 <EXTI3_IRQHandler+0x1c>)
 8000942:	68db      	ldr	r3, [r3, #12]
 8000944:	4798      	blx	r3
    }
    MEXTI_voidClearPendingFlag(MEXTI_EXTI3);
 8000946:	2003      	movs	r0, #3
 8000948:	f7ff ff96 	bl	8000878 <MEXTI_voidClearPendingFlag>
}
 800094c:	bf00      	nop
 800094e:	bd80      	pop	{r7, pc}
 8000950:	2000003c 	.word	0x2000003c

08000954 <EXTI4_IRQHandler>:

void EXTI4_IRQHandler(void){
 8000954:	b580      	push	{r7, lr}
 8000956:	af00      	add	r7, sp, #0
    if(EXTI_pNotificationFunction[4] != NULL){
 8000958:	4b05      	ldr	r3, [pc, #20]	; (8000970 <EXTI4_IRQHandler+0x1c>)
 800095a:	691b      	ldr	r3, [r3, #16]
 800095c:	2b00      	cmp	r3, #0
 800095e:	d002      	beq.n	8000966 <EXTI4_IRQHandler+0x12>
        EXTI_pNotificationFunction[4]();
 8000960:	4b03      	ldr	r3, [pc, #12]	; (8000970 <EXTI4_IRQHandler+0x1c>)
 8000962:	691b      	ldr	r3, [r3, #16]
 8000964:	4798      	blx	r3
    }
    MEXTI_voidClearPendingFlag(MEXTI_EXTI4);
 8000966:	2004      	movs	r0, #4
 8000968:	f7ff ff86 	bl	8000878 <MEXTI_voidClearPendingFlag>
}
 800096c:	bf00      	nop
 800096e:	bd80      	pop	{r7, pc}
 8000970:	2000003c 	.word	0x2000003c

08000974 <EXTI9_5_IRQHandler>:

void EXTI9_5_IRQHandler(void)
{
 8000974:	b580      	push	{r7, lr}
 8000976:	af00      	add	r7, sp, #0
	if(MEXTI_u8GetPendingFlag(MEXTI_EXTI5))
 8000978:	2005      	movs	r0, #5
 800097a:	f7ff ff95 	bl	80008a8 <MEXTI_u8GetPendingFlag>
 800097e:	4603      	mov	r3, r0
 8000980:	2b00      	cmp	r3, #0
 8000982:	d00a      	beq.n	800099a <EXTI9_5_IRQHandler+0x26>
	{
		if(EXTI_pNotificationFunction[5] != NULL){
 8000984:	4b27      	ldr	r3, [pc, #156]	; (8000a24 <EXTI9_5_IRQHandler+0xb0>)
 8000986:	695b      	ldr	r3, [r3, #20]
 8000988:	2b00      	cmp	r3, #0
 800098a:	d002      	beq.n	8000992 <EXTI9_5_IRQHandler+0x1e>
			EXTI_pNotificationFunction[5]();
 800098c:	4b25      	ldr	r3, [pc, #148]	; (8000a24 <EXTI9_5_IRQHandler+0xb0>)
 800098e:	695b      	ldr	r3, [r3, #20]
 8000990:	4798      	blx	r3
		}
		MEXTI_voidClearPendingFlag(MEXTI_EXTI5);
 8000992:	2005      	movs	r0, #5
 8000994:	f7ff ff70 	bl	8000878 <MEXTI_voidClearPendingFlag>
		if(EXTI_pNotificationFunction[9] != NULL){
			EXTI_pNotificationFunction[9]();
		}
		MEXTI_voidClearPendingFlag(MEXTI_EXTI9);
	}
}
 8000998:	e042      	b.n	8000a20 <EXTI9_5_IRQHandler+0xac>
	else if(MEXTI_u8GetPendingFlag(MEXTI_EXTI6))
 800099a:	2006      	movs	r0, #6
 800099c:	f7ff ff84 	bl	80008a8 <MEXTI_u8GetPendingFlag>
 80009a0:	4603      	mov	r3, r0
 80009a2:	2b00      	cmp	r3, #0
 80009a4:	d00a      	beq.n	80009bc <EXTI9_5_IRQHandler+0x48>
		if(EXTI_pNotificationFunction[6] != NULL){
 80009a6:	4b1f      	ldr	r3, [pc, #124]	; (8000a24 <EXTI9_5_IRQHandler+0xb0>)
 80009a8:	699b      	ldr	r3, [r3, #24]
 80009aa:	2b00      	cmp	r3, #0
 80009ac:	d002      	beq.n	80009b4 <EXTI9_5_IRQHandler+0x40>
			EXTI_pNotificationFunction[6]();
 80009ae:	4b1d      	ldr	r3, [pc, #116]	; (8000a24 <EXTI9_5_IRQHandler+0xb0>)
 80009b0:	699b      	ldr	r3, [r3, #24]
 80009b2:	4798      	blx	r3
		MEXTI_voidClearPendingFlag(MEXTI_EXTI6);
 80009b4:	2006      	movs	r0, #6
 80009b6:	f7ff ff5f 	bl	8000878 <MEXTI_voidClearPendingFlag>
}
 80009ba:	e031      	b.n	8000a20 <EXTI9_5_IRQHandler+0xac>
	else if(MEXTI_u8GetPendingFlag(MEXTI_EXTI7))
 80009bc:	2007      	movs	r0, #7
 80009be:	f7ff ff73 	bl	80008a8 <MEXTI_u8GetPendingFlag>
 80009c2:	4603      	mov	r3, r0
 80009c4:	2b00      	cmp	r3, #0
 80009c6:	d00a      	beq.n	80009de <EXTI9_5_IRQHandler+0x6a>
		if(EXTI_pNotificationFunction[7] != NULL){
 80009c8:	4b16      	ldr	r3, [pc, #88]	; (8000a24 <EXTI9_5_IRQHandler+0xb0>)
 80009ca:	69db      	ldr	r3, [r3, #28]
 80009cc:	2b00      	cmp	r3, #0
 80009ce:	d002      	beq.n	80009d6 <EXTI9_5_IRQHandler+0x62>
			EXTI_pNotificationFunction[7]();
 80009d0:	4b14      	ldr	r3, [pc, #80]	; (8000a24 <EXTI9_5_IRQHandler+0xb0>)
 80009d2:	69db      	ldr	r3, [r3, #28]
 80009d4:	4798      	blx	r3
		MEXTI_voidClearPendingFlag(MEXTI_EXTI7);
 80009d6:	2007      	movs	r0, #7
 80009d8:	f7ff ff4e 	bl	8000878 <MEXTI_voidClearPendingFlag>
}
 80009dc:	e020      	b.n	8000a20 <EXTI9_5_IRQHandler+0xac>
	else if (MEXTI_u8GetPendingFlag(MEXTI_EXTI8))
 80009de:	2008      	movs	r0, #8
 80009e0:	f7ff ff62 	bl	80008a8 <MEXTI_u8GetPendingFlag>
 80009e4:	4603      	mov	r3, r0
 80009e6:	2b00      	cmp	r3, #0
 80009e8:	d00a      	beq.n	8000a00 <EXTI9_5_IRQHandler+0x8c>
		if(EXTI_pNotificationFunction[8] != NULL){
 80009ea:	4b0e      	ldr	r3, [pc, #56]	; (8000a24 <EXTI9_5_IRQHandler+0xb0>)
 80009ec:	6a1b      	ldr	r3, [r3, #32]
 80009ee:	2b00      	cmp	r3, #0
 80009f0:	d002      	beq.n	80009f8 <EXTI9_5_IRQHandler+0x84>
			EXTI_pNotificationFunction[8]();
 80009f2:	4b0c      	ldr	r3, [pc, #48]	; (8000a24 <EXTI9_5_IRQHandler+0xb0>)
 80009f4:	6a1b      	ldr	r3, [r3, #32]
 80009f6:	4798      	blx	r3
		MEXTI_voidClearPendingFlag(MEXTI_EXTI8);
 80009f8:	2008      	movs	r0, #8
 80009fa:	f7ff ff3d 	bl	8000878 <MEXTI_voidClearPendingFlag>
}
 80009fe:	e00f      	b.n	8000a20 <EXTI9_5_IRQHandler+0xac>
	else if (MEXTI_u8GetPendingFlag(MEXTI_EXTI9))
 8000a00:	2009      	movs	r0, #9
 8000a02:	f7ff ff51 	bl	80008a8 <MEXTI_u8GetPendingFlag>
 8000a06:	4603      	mov	r3, r0
 8000a08:	2b00      	cmp	r3, #0
 8000a0a:	d009      	beq.n	8000a20 <EXTI9_5_IRQHandler+0xac>
		if(EXTI_pNotificationFunction[9] != NULL){
 8000a0c:	4b05      	ldr	r3, [pc, #20]	; (8000a24 <EXTI9_5_IRQHandler+0xb0>)
 8000a0e:	6a5b      	ldr	r3, [r3, #36]	; 0x24
 8000a10:	2b00      	cmp	r3, #0
 8000a12:	d002      	beq.n	8000a1a <EXTI9_5_IRQHandler+0xa6>
			EXTI_pNotificationFunction[9]();
 8000a14:	4b03      	ldr	r3, [pc, #12]	; (8000a24 <EXTI9_5_IRQHandler+0xb0>)
 8000a16:	6a5b      	ldr	r3, [r3, #36]	; 0x24
 8000a18:	4798      	blx	r3
		MEXTI_voidClearPendingFlag(MEXTI_EXTI9);
 8000a1a:	2009      	movs	r0, #9
 8000a1c:	f7ff ff2c 	bl	8000878 <MEXTI_voidClearPendingFlag>
}
 8000a20:	bf00      	nop
 8000a22:	bd80      	pop	{r7, pc}
 8000a24:	2000003c 	.word	0x2000003c

08000a28 <EXTI15_10_IRQHandler>:

void EXTI15_10_IRQHandler(void)
{
 8000a28:	b580      	push	{r7, lr}
 8000a2a:	af00      	add	r7, sp, #0
	if(MEXTI_u8GetPendingFlag(MEXTI_EXTI10))
 8000a2c:	200a      	movs	r0, #10
 8000a2e:	f7ff ff3b 	bl	80008a8 <MEXTI_u8GetPendingFlag>
 8000a32:	4603      	mov	r3, r0
 8000a34:	2b00      	cmp	r3, #0
 8000a36:	d00a      	beq.n	8000a4e <EXTI15_10_IRQHandler+0x26>
	{
		if(EXTI_pNotificationFunction[10] != NULL){
 8000a38:	4b30      	ldr	r3, [pc, #192]	; (8000afc <EXTI15_10_IRQHandler+0xd4>)
 8000a3a:	6a9b      	ldr	r3, [r3, #40]	; 0x28
 8000a3c:	2b00      	cmp	r3, #0
 8000a3e:	d002      	beq.n	8000a46 <EXTI15_10_IRQHandler+0x1e>
			EXTI_pNotificationFunction[10]();
 8000a40:	4b2e      	ldr	r3, [pc, #184]	; (8000afc <EXTI15_10_IRQHandler+0xd4>)
 8000a42:	6a9b      	ldr	r3, [r3, #40]	; 0x28
 8000a44:	4798      	blx	r3
		}
		MEXTI_voidClearPendingFlag(MEXTI_EXTI10);
 8000a46:	200a      	movs	r0, #10
 8000a48:	f7ff ff16 	bl	8000878 <MEXTI_voidClearPendingFlag>
		if(EXTI_pNotificationFunction[15] != NULL){
			EXTI_pNotificationFunction[15]();
		}
		MEXTI_voidClearPendingFlag(MEXTI_EXTI15);
	}
}
 8000a4c:	e053      	b.n	8000af6 <EXTI15_10_IRQHandler+0xce>
	else if(MEXTI_u8GetPendingFlag(MEXTI_EXTI11))
 8000a4e:	200b      	movs	r0, #11
 8000a50:	f7ff ff2a 	bl	80008a8 <MEXTI_u8GetPendingFlag>
 8000a54:	4603      	mov	r3, r0
 8000a56:	2b00      	cmp	r3, #0
 8000a58:	d00a      	beq.n	8000a70 <EXTI15_10_IRQHandler+0x48>
		if(EXTI_pNotificationFunction[11] != NULL){
 8000a5a:	4b28      	ldr	r3, [pc, #160]	; (8000afc <EXTI15_10_IRQHandler+0xd4>)
 8000a5c:	6adb      	ldr	r3, [r3, #44]	; 0x2c
 8000a5e:	2b00      	cmp	r3, #0
 8000a60:	d002      	beq.n	8000a68 <EXTI15_10_IRQHandler+0x40>
			EXTI_pNotificationFunction[11]();
 8000a62:	4b26      	ldr	r3, [pc, #152]	; (8000afc <EXTI15_10_IRQHandler+0xd4>)
 8000a64:	6adb      	ldr	r3, [r3, #44]	; 0x2c
 8000a66:	4798      	blx	r3
		MEXTI_voidClearPendingFlag(MEXTI_EXTI11);
 8000a68:	200b      	movs	r0, #11
 8000a6a:	f7ff ff05 	bl	8000878 <MEXTI_voidClearPendingFlag>
}
 8000a6e:	e042      	b.n	8000af6 <EXTI15_10_IRQHandler+0xce>
	else if(MEXTI_u8GetPendingFlag(MEXTI_EXTI12))
 8000a70:	200c      	movs	r0, #12
 8000a72:	f7ff ff19 	bl	80008a8 <MEXTI_u8GetPendingFlag>
 8000a76:	4603      	mov	r3, r0
 8000a78:	2b00      	cmp	r3, #0
 8000a7a:	d00a      	beq.n	8000a92 <EXTI15_10_IRQHandler+0x6a>
		if(EXTI_pNotificationFunction[12] != NULL){
 8000a7c:	4b1f      	ldr	r3, [pc, #124]	; (8000afc <EXTI15_10_IRQHandler+0xd4>)
 8000a7e:	6b1b      	ldr	r3, [r3, #48]	; 0x30
 8000a80:	2b00      	cmp	r3, #0
 8000a82:	d002      	beq.n	8000a8a <EXTI15_10_IRQHandler+0x62>
			EXTI_pNotificationFunction[12]();
 8000a84:	4b1d      	ldr	r3, [pc, #116]	; (8000afc <EXTI15_10_IRQHandler+0xd4>)
 8000a86:	6b1b      	ldr	r3, [r3, #48]	; 0x30
 8000a88:	4798      	blx	r3
		MEXTI_voidClearPendingFlag(MEXTI_EXTI12);
 8000a8a:	200c      	movs	r0, #12
 8000a8c:	f7ff fef4 	bl	8000878 <MEXTI_voidClearPendingFlag>
}
 8000a90:	e031      	b.n	8000af6 <EXTI15_10_IRQHandler+0xce>
	else if (MEXTI_u8GetPendingFlag(MEXTI_EXTI13))
 8000a92:	200d      	movs	r0, #13
 8000a94:	f7ff ff08 	bl	80008a8 <MEXTI_u8GetPendingFlag>
 8000a98:	4603      	mov	r3, r0
 8000a9a:	2b00      	cmp	r3, #0
 8000a9c:	d00a      	beq.n	8000ab4 <EXTI15_10_IRQHandler+0x8c>
		if(EXTI_pNotificationFunction[13] != NULL){
 8000a9e:	4b17      	ldr	r3, [pc, #92]	; (8000afc <EXTI15_10_IRQHandler+0xd4>)
 8000aa0:	6b5b      	ldr	r3, [r3, #52]	; 0x34
 8000aa2:	2b00      	cmp	r3, #0
 8000aa4:	d002      	beq.n	8000aac <EXTI15_10_IRQHandler+0x84>
			EXTI_pNotificationFunction[13]();
 8000aa6:	4b15      	ldr	r3, [pc, #84]	; (8000afc <EXTI15_10_IRQHandler+0xd4>)
 8000aa8:	6b5b      	ldr	r3, [r3, #52]	; 0x34
 8000aaa:	4798      	blx	r3
		MEXTI_voidClearPendingFlag(MEXTI_EXTI13);
 8000aac:	200d      	movs	r0, #13
 8000aae:	f7ff fee3 	bl	8000878 <MEXTI_voidClearPendingFlag>
}
 8000ab2:	e020      	b.n	8000af6 <EXTI15_10_IRQHandler+0xce>
	else if (MEXTI_u8GetPendingFlag(MEXTI_EXTI14))
 8000ab4:	200e      	movs	r0, #14
 8000ab6:	f7ff fef7 	bl	80008a8 <MEXTI_u8GetPendingFlag>
 8000aba:	4603      	mov	r3, r0
 8000abc:	2b00      	cmp	r3, #0
 8000abe:	d00a      	beq.n	8000ad6 <EXTI15_10_IRQHandler+0xae>
		if(EXTI_pNotificationFunction[14] != NULL){
 8000ac0:	4b0e      	ldr	r3, [pc, #56]	; (8000afc <EXTI15_10_IRQHandler+0xd4>)
 8000ac2:	6b9b      	ldr	r3, [r3, #56]	; 0x38
 8000ac4:	2b00      	cmp	r3, #0
 8000ac6:	d002      	beq.n	8000ace <EXTI15_10_IRQHandler+0xa6>
			EXTI_pNotificationFunction[14]();
 8000ac8:	4b0c      	ldr	r3, [pc, #48]	; (8000afc <EXTI15_10_IRQHandler+0xd4>)
 8000aca:	6b9b      	ldr	r3, [r3, #56]	; 0x38
 8000acc:	4798      	blx	r3
		MEXTI_voidClearPendingFlag(MEXTI_EXTI14);
 8000ace:	200e      	movs	r0, #14
 8000ad0:	f7ff fed2 	bl	8000878 <MEXTI_voidClearPendingFlag>
}
 8000ad4:	e00f      	b.n	8000af6 <EXTI15_10_IRQHandler+0xce>
	else if (MEXTI_u8GetPendingFlag(MEXTI_EXTI15))
 8000ad6:	200f      	movs	r0, #15
 8000ad8:	f7ff fee6 	bl	80008a8 <MEXTI_u8GetPendingFlag>
 8000adc:	4603      	mov	r3, r0
 8000ade:	2b00      	cmp	r3, #0
 8000ae0:	d009      	beq.n	8000af6 <EXTI15_10_IRQHandler+0xce>
		if(EXTI_pNotificationFunction[15] != NULL){
 8000ae2:	4b06      	ldr	r3, [pc, #24]	; (8000afc <EXTI15_10_IRQHandler+0xd4>)
 8000ae4:	6bdb      	ldr	r3, [r3, #60]	; 0x3c
 8000ae6:	2b00      	cmp	r3, #0
 8000ae8:	d002      	beq.n	8000af0 <EXTI15_10_IRQHandler+0xc8>
			EXTI_pNotificationFunction[15]();
 8000aea:	4b04      	ldr	r3, [pc, #16]	; (8000afc <EXTI15_10_IRQHandler+0xd4>)
 8000aec:	6bdb      	ldr	r3, [r3, #60]	; 0x3c
 8000aee:	4798      	blx	r3
		MEXTI_voidClearPendingFlag(MEXTI_EXTI15);
 8000af0:	200f      	movs	r0, #15
 8000af2:	f7ff fec1 	bl	8000878 <MEXTI_voidClearPendingFlag>
}
 8000af6:	bf00      	nop
 8000af8:	bd80      	pop	{r7, pc}
 8000afa:	bf00      	nop
 8000afc:	2000003c 	.word	0x2000003c

08000b00 <GPIO_voidSetPinMode>:
#include"../../../Inc/MCAL/GPIO/GPIO_config.h"
#include"../../../Inc/MCAL/GPIO/GPIO_interface.h"
#include"../../../Inc/MCAL/GPIO/GPIO_private.h"

void GPIO_voidSetPinMode(port_index_t Copy_PortIndex, pin_index_t Copy_PinIndex,
                         gpio_pin_mode_t Copy_GPIOPinMode) {
 8000b00:	b480      	push	{r7}
 8000b02:	b083      	sub	sp, #12
 8000b04:	af00      	add	r7, sp, #0
 8000b06:	4603      	mov	r3, r0
 8000b08:	71fb      	strb	r3, [r7, #7]
 8000b0a:	460b      	mov	r3, r1
 8000b0c:	71bb      	strb	r3, [r7, #6]
 8000b0e:	4613      	mov	r3, r2
 8000b10:	717b      	strb	r3, [r7, #5]
  switch (Copy_PortIndex) {
 8000b12:	79fb      	ldrb	r3, [r7, #7]
 8000b14:	2b02      	cmp	r3, #2
 8000b16:	d02c      	beq.n	8000b72 <GPIO_voidSetPinMode+0x72>
 8000b18:	2b02      	cmp	r3, #2
 8000b1a:	dc3d      	bgt.n	8000b98 <GPIO_voidSetPinMode+0x98>
 8000b1c:	2b00      	cmp	r3, #0
 8000b1e:	d002      	beq.n	8000b26 <GPIO_voidSetPinMode+0x26>
 8000b20:	2b01      	cmp	r3, #1
 8000b22:	d013      	beq.n	8000b4c <GPIO_voidSetPinMode+0x4c>
      MODIFY_REG(GPIOC_MODER,
                 GPIO_MODER_CLEAR_MASK << GPIO_MODER_PIN_BITS * Copy_PinIndex,
                 Copy_GPIOPinMode << GPIO_MODER_PIN_BITS * Copy_PinIndex);
      break;
    default:
      break;
 8000b24:	e038      	b.n	8000b98 <GPIO_voidSetPinMode+0x98>
      MODIFY_REG(GPIOA_MODER,
 8000b26:	4b20      	ldr	r3, [pc, #128]	; (8000ba8 <GPIO_voidSetPinMode+0xa8>)
 8000b28:	681b      	ldr	r3, [r3, #0]
 8000b2a:	79ba      	ldrb	r2, [r7, #6]
 8000b2c:	0052      	lsls	r2, r2, #1
 8000b2e:	2103      	movs	r1, #3
 8000b30:	fa01 f202 	lsl.w	r2, r1, r2
 8000b34:	43d2      	mvns	r2, r2
 8000b36:	4013      	ands	r3, r2
 8000b38:	7979      	ldrb	r1, [r7, #5]
 8000b3a:	79ba      	ldrb	r2, [r7, #6]
 8000b3c:	0052      	lsls	r2, r2, #1
 8000b3e:	fa01 f202 	lsl.w	r2, r1, r2
 8000b42:	4611      	mov	r1, r2
 8000b44:	4a18      	ldr	r2, [pc, #96]	; (8000ba8 <GPIO_voidSetPinMode+0xa8>)
 8000b46:	430b      	orrs	r3, r1
 8000b48:	6013      	str	r3, [r2, #0]
      break;
 8000b4a:	e026      	b.n	8000b9a <GPIO_voidSetPinMode+0x9a>
      MODIFY_REG(GPIOB_MODER,
 8000b4c:	4b17      	ldr	r3, [pc, #92]	; (8000bac <GPIO_voidSetPinMode+0xac>)
 8000b4e:	681b      	ldr	r3, [r3, #0]
 8000b50:	79ba      	ldrb	r2, [r7, #6]
 8000b52:	0052      	lsls	r2, r2, #1
 8000b54:	2103      	movs	r1, #3
 8000b56:	fa01 f202 	lsl.w	r2, r1, r2
 8000b5a:	43d2      	mvns	r2, r2
 8000b5c:	4013      	ands	r3, r2
 8000b5e:	7979      	ldrb	r1, [r7, #5]
 8000b60:	79ba      	ldrb	r2, [r7, #6]
 8000b62:	0052      	lsls	r2, r2, #1
 8000b64:	fa01 f202 	lsl.w	r2, r1, r2
 8000b68:	4611      	mov	r1, r2
 8000b6a:	4a10      	ldr	r2, [pc, #64]	; (8000bac <GPIO_voidSetPinMode+0xac>)
 8000b6c:	430b      	orrs	r3, r1
 8000b6e:	6013      	str	r3, [r2, #0]
      break;
 8000b70:	e013      	b.n	8000b9a <GPIO_voidSetPinMode+0x9a>
      MODIFY_REG(GPIOC_MODER,
 8000b72:	4b0f      	ldr	r3, [pc, #60]	; (8000bb0 <GPIO_voidSetPinMode+0xb0>)
 8000b74:	681b      	ldr	r3, [r3, #0]
 8000b76:	79ba      	ldrb	r2, [r7, #6]
 8000b78:	0052      	lsls	r2, r2, #1
 8000b7a:	2103      	movs	r1, #3
 8000b7c:	fa01 f202 	lsl.w	r2, r1, r2
 8000b80:	43d2      	mvns	r2, r2
 8000b82:	4013      	ands	r3, r2
 8000b84:	7979      	ldrb	r1, [r7, #5]
 8000b86:	79ba      	ldrb	r2, [r7, #6]
 8000b88:	0052      	lsls	r2, r2, #1
 8000b8a:	fa01 f202 	lsl.w	r2, r1, r2
 8000b8e:	4611      	mov	r1, r2
 8000b90:	4a07      	ldr	r2, [pc, #28]	; (8000bb0 <GPIO_voidSetPinMode+0xb0>)
 8000b92:	430b      	orrs	r3, r1
 8000b94:	6013      	str	r3, [r2, #0]
      break;
 8000b96:	e000      	b.n	8000b9a <GPIO_voidSetPinMode+0x9a>
      break;
 8000b98:	bf00      	nop
  }
}
 8000b9a:	bf00      	nop
 8000b9c:	370c      	adds	r7, #12
 8000b9e:	46bd      	mov	sp, r7
 8000ba0:	f85d 7b04 	ldr.w	r7, [sp], #4
 8000ba4:	4770      	bx	lr
 8000ba6:	bf00      	nop
 8000ba8:	40020000 	.word	0x40020000
 8000bac:	40020400 	.word	0x40020400
 8000bb0:	40020800 	.word	0x40020800

08000bb4 <GPIO_voidSetPinOutputMode>:
void GPIO_voidSetPinOutputMode(port_index_t Copy_PortIndex,
                               pin_index_t Copy_PinIndex,
                               output_pin_mode_t Copy_OutputPinMode) {
 8000bb4:	b480      	push	{r7}
 8000bb6:	b083      	sub	sp, #12
 8000bb8:	af00      	add	r7, sp, #0
 8000bba:	4603      	mov	r3, r0
 8000bbc:	71fb      	strb	r3, [r7, #7]
 8000bbe:	460b      	mov	r3, r1
 8000bc0:	71bb      	strb	r3, [r7, #6]
 8000bc2:	4613      	mov	r3, r2
 8000bc4:	717b      	strb	r3, [r7, #5]
  switch (Copy_PortIndex) {
 8000bc6:	79fb      	ldrb	r3, [r7, #7]
 8000bc8:	2b02      	cmp	r3, #2
 8000bca:	d028      	beq.n	8000c1e <GPIO_voidSetPinOutputMode+0x6a>
 8000bcc:	2b02      	cmp	r3, #2
 8000bce:	dc37      	bgt.n	8000c40 <GPIO_voidSetPinOutputMode+0x8c>
 8000bd0:	2b00      	cmp	r3, #0
 8000bd2:	d002      	beq.n	8000bda <GPIO_voidSetPinOutputMode+0x26>
 8000bd4:	2b01      	cmp	r3, #1
 8000bd6:	d011      	beq.n	8000bfc <GPIO_voidSetPinOutputMode+0x48>
    case GPIO_PORTC:
      MODIFY_REG(GPIOC_OTYPER, GPIO_OTYPER_CLEAR_MASK << Copy_PinIndex,
                 Copy_OutputPinMode << Copy_PinIndex);
      break;
    default:
      break;
 8000bd8:	e032      	b.n	8000c40 <GPIO_voidSetPinOutputMode+0x8c>
      MODIFY_REG(GPIOB_OTYPER, GPIO_OTYPER_CLEAR_MASK << Copy_PinIndex,
 8000bda:	4b1d      	ldr	r3, [pc, #116]	; (8000c50 <GPIO_voidSetPinOutputMode+0x9c>)
 8000bdc:	681b      	ldr	r3, [r3, #0]
 8000bde:	79ba      	ldrb	r2, [r7, #6]
 8000be0:	2101      	movs	r1, #1
 8000be2:	fa01 f202 	lsl.w	r2, r1, r2
 8000be6:	43d2      	mvns	r2, r2
 8000be8:	4013      	ands	r3, r2
 8000bea:	7979      	ldrb	r1, [r7, #5]
 8000bec:	79ba      	ldrb	r2, [r7, #6]
 8000bee:	fa01 f202 	lsl.w	r2, r1, r2
 8000bf2:	4611      	mov	r1, r2
 8000bf4:	4a16      	ldr	r2, [pc, #88]	; (8000c50 <GPIO_voidSetPinOutputMode+0x9c>)
 8000bf6:	430b      	orrs	r3, r1
 8000bf8:	6013      	str	r3, [r2, #0]
      break;
 8000bfa:	e022      	b.n	8000c42 <GPIO_voidSetPinOutputMode+0x8e>
      MODIFY_REG(GPIOB_OTYPER, GPIO_OTYPER_CLEAR_MASK << Copy_PinIndex,
 8000bfc:	4b14      	ldr	r3, [pc, #80]	; (8000c50 <GPIO_voidSetPinOutputMode+0x9c>)
 8000bfe:	681b      	ldr	r3, [r3, #0]
 8000c00:	79ba      	ldrb	r2, [r7, #6]
 8000c02:	2101      	movs	r1, #1
 8000c04:	fa01 f202 	lsl.w	r2, r1, r2
 8000c08:	43d2      	mvns	r2, r2
 8000c0a:	4013      	ands	r3, r2
 8000c0c:	7979      	ldrb	r1, [r7, #5]
 8000c0e:	79ba      	ldrb	r2, [r7, #6]
 8000c10:	fa01 f202 	lsl.w	r2, r1, r2
 8000c14:	4611      	mov	r1, r2
 8000c16:	4a0e      	ldr	r2, [pc, #56]	; (8000c50 <GPIO_voidSetPinOutputMode+0x9c>)
 8000c18:	430b      	orrs	r3, r1
 8000c1a:	6013      	str	r3, [r2, #0]
      break;
 8000c1c:	e011      	b.n	8000c42 <GPIO_voidSetPinOutputMode+0x8e>
      MODIFY_REG(GPIOC_OTYPER, GPIO_OTYPER_CLEAR_MASK << Copy_PinIndex,
 8000c1e:	4b0d      	ldr	r3, [pc, #52]	; (8000c54 <GPIO_voidSetPinOutputMode+0xa0>)
 8000c20:	681b      	ldr	r3, [r3, #0]
 8000c22:	79ba      	ldrb	r2, [r7, #6]
 8000c24:	2101      	movs	r1, #1
 8000c26:	fa01 f202 	lsl.w	r2, r1, r2
 8000c2a:	43d2      	mvns	r2, r2
 8000c2c:	4013      	ands	r3, r2
 8000c2e:	7979      	ldrb	r1, [r7, #5]
 8000c30:	79ba      	ldrb	r2, [r7, #6]
 8000c32:	fa01 f202 	lsl.w	r2, r1, r2
 8000c36:	4611      	mov	r1, r2
 8000c38:	4a06      	ldr	r2, [pc, #24]	; (8000c54 <GPIO_voidSetPinOutputMode+0xa0>)
 8000c3a:	430b      	orrs	r3, r1
 8000c3c:	6013      	str	r3, [r2, #0]
      break;
 8000c3e:	e000      	b.n	8000c42 <GPIO_voidSetPinOutputMode+0x8e>
      break;
 8000c40:	bf00      	nop
  }
}
 8000c42:	bf00      	nop
 8000c44:	370c      	adds	r7, #12
 8000c46:	46bd      	mov	sp, r7
 8000c48:	f85d 7b04 	ldr.w	r7, [sp], #4
 8000c4c:	4770      	bx	lr
 8000c4e:	bf00      	nop
 8000c50:	40020404 	.word	0x40020404
 8000c54:	40020804 	.word	0x40020804

08000c58 <GPIO_voidSetPinOutputSpeed>:
void GPIO_voidSetPinOutputSpeed(port_index_t Copy_PortIndex,
                                pin_index_t Copy_PinIndex,
                                output_pin_speed_mode_t Copy_OutputPinSpeed) {
 8000c58:	b480      	push	{r7}
 8000c5a:	b083      	sub	sp, #12
 8000c5c:	af00      	add	r7, sp, #0
 8000c5e:	4603      	mov	r3, r0
 8000c60:	71fb      	strb	r3, [r7, #7]
 8000c62:	460b      	mov	r3, r1
 8000c64:	71bb      	strb	r3, [r7, #6]
 8000c66:	4613      	mov	r3, r2
 8000c68:	717b      	strb	r3, [r7, #5]
  switch (Copy_PortIndex) {
 8000c6a:	79fb      	ldrb	r3, [r7, #7]
 8000c6c:	2b02      	cmp	r3, #2
 8000c6e:	d02c      	beq.n	8000cca <GPIO_voidSetPinOutputSpeed+0x72>
 8000c70:	2b02      	cmp	r3, #2
 8000c72:	dc3d      	bgt.n	8000cf0 <GPIO_voidSetPinOutputSpeed+0x98>
 8000c74:	2b00      	cmp	r3, #0
 8000c76:	d002      	beq.n	8000c7e <GPIO_voidSetPinOutputSpeed+0x26>
 8000c78:	2b01      	cmp	r3, #1
 8000c7a:	d013      	beq.n	8000ca4 <GPIO_voidSetPinOutputSpeed+0x4c>
      MODIFY_REG(GPIOC_OSPEEDR,
                 GPIO_MODER_CLEAR_MASK << GPIO_OSPEEDR_PIN_BITS * Copy_PinIndex,
                 Copy_OutputPinSpeed << GPIO_OSPEEDR_PIN_BITS * Copy_PinIndex);
      break;
    default:
      break;
 8000c7c:	e038      	b.n	8000cf0 <GPIO_voidSetPinOutputSpeed+0x98>
      MODIFY_REG(
 8000c7e:	4b20      	ldr	r3, [pc, #128]	; (8000d00 <GPIO_voidSetPinOutputSpeed+0xa8>)
 8000c80:	681b      	ldr	r3, [r3, #0]
 8000c82:	79ba      	ldrb	r2, [r7, #6]
 8000c84:	0052      	lsls	r2, r2, #1
 8000c86:	2103      	movs	r1, #3
 8000c88:	fa01 f202 	lsl.w	r2, r1, r2
 8000c8c:	43d2      	mvns	r2, r2
 8000c8e:	4013      	ands	r3, r2
 8000c90:	7979      	ldrb	r1, [r7, #5]
 8000c92:	79ba      	ldrb	r2, [r7, #6]
 8000c94:	0052      	lsls	r2, r2, #1
 8000c96:	fa01 f202 	lsl.w	r2, r1, r2
 8000c9a:	4611      	mov	r1, r2
 8000c9c:	4a18      	ldr	r2, [pc, #96]	; (8000d00 <GPIO_voidSetPinOutputSpeed+0xa8>)
 8000c9e:	430b      	orrs	r3, r1
 8000ca0:	6013      	str	r3, [r2, #0]
      break;
 8000ca2:	e026      	b.n	8000cf2 <GPIO_voidSetPinOutputSpeed+0x9a>
      MODIFY_REG(
 8000ca4:	4b17      	ldr	r3, [pc, #92]	; (8000d04 <GPIO_voidSetPinOutputSpeed+0xac>)
 8000ca6:	681b      	ldr	r3, [r3, #0]
 8000ca8:	79ba      	ldrb	r2, [r7, #6]
 8000caa:	0052      	lsls	r2, r2, #1
 8000cac:	2103      	movs	r1, #3
 8000cae:	fa01 f202 	lsl.w	r2, r1, r2
 8000cb2:	43d2      	mvns	r2, r2
 8000cb4:	4013      	ands	r3, r2
 8000cb6:	7979      	ldrb	r1, [r7, #5]
 8000cb8:	79ba      	ldrb	r2, [r7, #6]
 8000cba:	0052      	lsls	r2, r2, #1
 8000cbc:	fa01 f202 	lsl.w	r2, r1, r2
 8000cc0:	4611      	mov	r1, r2
 8000cc2:	4a10      	ldr	r2, [pc, #64]	; (8000d04 <GPIO_voidSetPinOutputSpeed+0xac>)
 8000cc4:	430b      	orrs	r3, r1
 8000cc6:	6013      	str	r3, [r2, #0]
      break;
 8000cc8:	e013      	b.n	8000cf2 <GPIO_voidSetPinOutputSpeed+0x9a>
      MODIFY_REG(GPIOC_OSPEEDR,
 8000cca:	4b0f      	ldr	r3, [pc, #60]	; (8000d08 <GPIO_voidSetPinOutputSpeed+0xb0>)
 8000ccc:	681b      	ldr	r3, [r3, #0]
 8000cce:	79ba      	ldrb	r2, [r7, #6]
 8000cd0:	0052      	lsls	r2, r2, #1
 8000cd2:	2103      	movs	r1, #3
 8000cd4:	fa01 f202 	lsl.w	r2, r1, r2
 8000cd8:	43d2      	mvns	r2, r2
 8000cda:	4013      	ands	r3, r2
 8000cdc:	7979      	ldrb	r1, [r7, #5]
 8000cde:	79ba      	ldrb	r2, [r7, #6]
 8000ce0:	0052      	lsls	r2, r2, #1
 8000ce2:	fa01 f202 	lsl.w	r2, r1, r2
 8000ce6:	4611      	mov	r1, r2
 8000ce8:	4a07      	ldr	r2, [pc, #28]	; (8000d08 <GPIO_voidSetPinOutputSpeed+0xb0>)
 8000cea:	430b      	orrs	r3, r1
 8000cec:	6013      	str	r3, [r2, #0]
      break;
 8000cee:	e000      	b.n	8000cf2 <GPIO_voidSetPinOutputSpeed+0x9a>
      break;
 8000cf0:	bf00      	nop
  }
}
 8000cf2:	bf00      	nop
 8000cf4:	370c      	adds	r7, #12
 8000cf6:	46bd      	mov	sp, r7
 8000cf8:	f85d 7b04 	ldr.w	r7, [sp], #4
 8000cfc:	4770      	bx	lr
 8000cfe:	bf00      	nop
 8000d00:	40020008 	.word	0x40020008
 8000d04:	40020408 	.word	0x40020408
 8000d08:	40020808 	.word	0x40020808

08000d0c <GPIO_voidSetPinValue>:
void GPIO_voidSetPinValue(port_index_t Copy_PortIndex,
                          pin_index_t Copy_PinIndex,
                          gpio_logic_t Copy_GPIOLogic) {
 8000d0c:	b480      	push	{r7}
 8000d0e:	b083      	sub	sp, #12
 8000d10:	af00      	add	r7, sp, #0
 8000d12:	4603      	mov	r3, r0
 8000d14:	71fb      	strb	r3, [r7, #7]
 8000d16:	460b      	mov	r3, r1
 8000d18:	71bb      	strb	r3, [r7, #6]
 8000d1a:	4613      	mov	r3, r2
 8000d1c:	717b      	strb	r3, [r7, #5]
  switch (Copy_PortIndex) {
 8000d1e:	79fb      	ldrb	r3, [r7, #7]
 8000d20:	2b02      	cmp	r3, #2
 8000d22:	d02c      	beq.n	8000d7e <GPIO_voidSetPinValue+0x72>
 8000d24:	2b02      	cmp	r3, #2
 8000d26:	dc3d      	bgt.n	8000da4 <GPIO_voidSetPinValue+0x98>
 8000d28:	2b00      	cmp	r3, #0
 8000d2a:	d002      	beq.n	8000d32 <GPIO_voidSetPinValue+0x26>
 8000d2c:	2b01      	cmp	r3, #1
 8000d2e:	d013      	beq.n	8000d58 <GPIO_voidSetPinValue+0x4c>
        WRITE_REG(GPIOC_BSRR, GPIO_RESET_BIT_POS << Copy_PinIndex);
      } else { /* Nothing */
      }
      break;
    default:
      break;
 8000d30:	e038      	b.n	8000da4 <GPIO_voidSetPinValue+0x98>
      if (Copy_GPIOLogic == GPIO_HIGH) {
 8000d32:	797b      	ldrb	r3, [r7, #5]
 8000d34:	2b01      	cmp	r3, #1
 8000d36:	d105      	bne.n	8000d44 <GPIO_voidSetPinValue+0x38>
        WRITE_REG(GPIOA_BSRR, GPIO_SET_BIT_POS << Copy_PinIndex);
 8000d38:	79bb      	ldrb	r3, [r7, #6]
 8000d3a:	2201      	movs	r2, #1
 8000d3c:	409a      	lsls	r2, r3
 8000d3e:	4b20      	ldr	r3, [pc, #128]	; (8000dc0 <GPIO_voidSetPinValue+0xb4>)
 8000d40:	601a      	str	r2, [r3, #0]
      break;
 8000d42:	e031      	b.n	8000da8 <GPIO_voidSetPinValue+0x9c>
      } else if (Copy_GPIOLogic == GPIO_LOW) {
 8000d44:	797b      	ldrb	r3, [r7, #5]
 8000d46:	2b00      	cmp	r3, #0
 8000d48:	d12e      	bne.n	8000da8 <GPIO_voidSetPinValue+0x9c>
        WRITE_REG(GPIOA_BSRR, GPIO_RESET_BIT_POS << Copy_PinIndex);
 8000d4a:	79bb      	ldrb	r3, [r7, #6]
 8000d4c:	f44f 3280 	mov.w	r2, #65536	; 0x10000
 8000d50:	409a      	lsls	r2, r3
 8000d52:	4b1b      	ldr	r3, [pc, #108]	; (8000dc0 <GPIO_voidSetPinValue+0xb4>)
 8000d54:	601a      	str	r2, [r3, #0]
      break;
 8000d56:	e027      	b.n	8000da8 <GPIO_voidSetPinValue+0x9c>
      if (Copy_GPIOLogic == GPIO_HIGH) {
 8000d58:	797b      	ldrb	r3, [r7, #5]
 8000d5a:	2b01      	cmp	r3, #1
 8000d5c:	d105      	bne.n	8000d6a <GPIO_voidSetPinValue+0x5e>
        WRITE_REG(GPIOB_BSRR, GPIO_SET_BIT_POS << Copy_PinIndex);
 8000d5e:	79bb      	ldrb	r3, [r7, #6]
 8000d60:	2201      	movs	r2, #1
 8000d62:	409a      	lsls	r2, r3
 8000d64:	4b17      	ldr	r3, [pc, #92]	; (8000dc4 <GPIO_voidSetPinValue+0xb8>)
 8000d66:	601a      	str	r2, [r3, #0]
      break;
 8000d68:	e020      	b.n	8000dac <GPIO_voidSetPinValue+0xa0>
      } else if (Copy_GPIOLogic == GPIO_LOW) {
 8000d6a:	797b      	ldrb	r3, [r7, #5]
 8000d6c:	2b00      	cmp	r3, #0
 8000d6e:	d11d      	bne.n	8000dac <GPIO_voidSetPinValue+0xa0>
        WRITE_REG(GPIOB_BSRR, GPIO_RESET_BIT_POS << Copy_PinIndex);
 8000d70:	79bb      	ldrb	r3, [r7, #6]
 8000d72:	f44f 3280 	mov.w	r2, #65536	; 0x10000
 8000d76:	409a      	lsls	r2, r3
 8000d78:	4b12      	ldr	r3, [pc, #72]	; (8000dc4 <GPIO_voidSetPinValue+0xb8>)
 8000d7a:	601a      	str	r2, [r3, #0]
      break;
 8000d7c:	e016      	b.n	8000dac <GPIO_voidSetPinValue+0xa0>
      if (Copy_GPIOLogic == GPIO_HIGH) {
 8000d7e:	797b      	ldrb	r3, [r7, #5]
 8000d80:	2b01      	cmp	r3, #1
 8000d82:	d105      	bne.n	8000d90 <GPIO_voidSetPinValue+0x84>
        WRITE_REG(GPIOC_BSRR, GPIO_SET_BIT_POS << Copy_PinIndex);
 8000d84:	79bb      	ldrb	r3, [r7, #6]
 8000d86:	2201      	movs	r2, #1
 8000d88:	409a      	lsls	r2, r3
 8000d8a:	4b0f      	ldr	r3, [pc, #60]	; (8000dc8 <GPIO_voidSetPinValue+0xbc>)
 8000d8c:	601a      	str	r2, [r3, #0]
      break;
 8000d8e:	e00f      	b.n	8000db0 <GPIO_voidSetPinValue+0xa4>
      } else if (Copy_GPIOLogic == GPIO_LOW) {
 8000d90:	797b      	ldrb	r3, [r7, #5]
 8000d92:	2b00      	cmp	r3, #0
 8000d94:	d10c      	bne.n	8000db0 <GPIO_voidSetPinValue+0xa4>
        WRITE_REG(GPIOC_BSRR, GPIO_RESET_BIT_POS << Copy_PinIndex);
 8000d96:	79bb      	ldrb	r3, [r7, #6]
 8000d98:	f44f 3280 	mov.w	r2, #65536	; 0x10000
 8000d9c:	409a      	lsls	r2, r3
 8000d9e:	4b0a      	ldr	r3, [pc, #40]	; (8000dc8 <GPIO_voidSetPinValue+0xbc>)
 8000da0:	601a      	str	r2, [r3, #0]
      break;
 8000da2:	e005      	b.n	8000db0 <GPIO_voidSetPinValue+0xa4>
      break;
 8000da4:	bf00      	nop
 8000da6:	e004      	b.n	8000db2 <GPIO_voidSetPinValue+0xa6>
      break;
 8000da8:	bf00      	nop
 8000daa:	e002      	b.n	8000db2 <GPIO_voidSetPinValue+0xa6>
      break;
 8000dac:	bf00      	nop
 8000dae:	e000      	b.n	8000db2 <GPIO_voidSetPinValue+0xa6>
      break;
 8000db0:	bf00      	nop
  }
}
 8000db2:	bf00      	nop
 8000db4:	370c      	adds	r7, #12
 8000db6:	46bd      	mov	sp, r7
 8000db8:	f85d 7b04 	ldr.w	r7, [sp], #4
 8000dbc:	4770      	bx	lr
 8000dbe:	bf00      	nop
 8000dc0:	40020018 	.word	0x40020018
 8000dc4:	40020418 	.word	0x40020418
 8000dc8:	40020818 	.word	0x40020818

08000dcc <GPIO_voidSetPinPullUpDownResistor>:
void GPIO_voidSetPinPullUpDownResistor(port_index_t Copy_PortIndex,
                                       pin_index_t Copy_PinIndex,
                                       input_pin_mode_t Copy_InputPinMode) {
 8000dcc:	b480      	push	{r7}
 8000dce:	b083      	sub	sp, #12
 8000dd0:	af00      	add	r7, sp, #0
 8000dd2:	4603      	mov	r3, r0
 8000dd4:	71fb      	strb	r3, [r7, #7]
 8000dd6:	460b      	mov	r3, r1
 8000dd8:	71bb      	strb	r3, [r7, #6]
 8000dda:	4613      	mov	r3, r2
 8000ddc:	717b      	strb	r3, [r7, #5]
  switch (Copy_PortIndex) {
 8000dde:	79fb      	ldrb	r3, [r7, #7]
 8000de0:	2b02      	cmp	r3, #2
 8000de2:	d02c      	beq.n	8000e3e <GPIO_voidSetPinPullUpDownResistor+0x72>
 8000de4:	2b02      	cmp	r3, #2
 8000de6:	dc3d      	bgt.n	8000e64 <GPIO_voidSetPinPullUpDownResistor+0x98>
 8000de8:	2b00      	cmp	r3, #0
 8000dea:	d002      	beq.n	8000df2 <GPIO_voidSetPinPullUpDownResistor+0x26>
 8000dec:	2b01      	cmp	r3, #1
 8000dee:	d013      	beq.n	8000e18 <GPIO_voidSetPinPullUpDownResistor+0x4c>
      MODIFY_REG(GPIOC_PUPDR,
                 GPIO_PUPDR_CLEAR_MASK << GPIO_PUPDR_PIN_BITS * Copy_PinIndex,
                 Copy_InputPinMode << GPIO_PUPDR_PIN_BITS * Copy_PinIndex);
      break;
    default:
      break;
 8000df0:	e038      	b.n	8000e64 <GPIO_voidSetPinPullUpDownResistor+0x98>
      MODIFY_REG(GPIOA_PUPDR,
 8000df2:	4b20      	ldr	r3, [pc, #128]	; (8000e74 <GPIO_voidSetPinPullUpDownResistor+0xa8>)
 8000df4:	681b      	ldr	r3, [r3, #0]
 8000df6:	79ba      	ldrb	r2, [r7, #6]
 8000df8:	0052      	lsls	r2, r2, #1
 8000dfa:	2103      	movs	r1, #3
 8000dfc:	fa01 f202 	lsl.w	r2, r1, r2
 8000e00:	43d2      	mvns	r2, r2
 8000e02:	4013      	ands	r3, r2
 8000e04:	7979      	ldrb	r1, [r7, #5]
 8000e06:	79ba      	ldrb	r2, [r7, #6]
 8000e08:	0052      	lsls	r2, r2, #1
 8000e0a:	fa01 f202 	lsl.w	r2, r1, r2
 8000e0e:	4611      	mov	r1, r2
 8000e10:	4a18      	ldr	r2, [pc, #96]	; (8000e74 <GPIO_voidSetPinPullUpDownResistor+0xa8>)
 8000e12:	430b      	orrs	r3, r1
 8000e14:	6013      	str	r3, [r2, #0]
      break;
 8000e16:	e026      	b.n	8000e66 <GPIO_voidSetPinPullUpDownResistor+0x9a>
      MODIFY_REG(GPIOB_PUPDR,
 8000e18:	4b17      	ldr	r3, [pc, #92]	; (8000e78 <GPIO_voidSetPinPullUpDownResistor+0xac>)
 8000e1a:	681b      	ldr	r3, [r3, #0]
 8000e1c:	79ba      	ldrb	r2, [r7, #6]
 8000e1e:	0052      	lsls	r2, r2, #1
 8000e20:	2103      	movs	r1, #3
 8000e22:	fa01 f202 	lsl.w	r2, r1, r2
 8000e26:	43d2      	mvns	r2, r2
 8000e28:	4013      	ands	r3, r2
 8000e2a:	7979      	ldrb	r1, [r7, #5]
 8000e2c:	79ba      	ldrb	r2, [r7, #6]
 8000e2e:	0052      	lsls	r2, r2, #1
 8000e30:	fa01 f202 	lsl.w	r2, r1, r2
 8000e34:	4611      	mov	r1, r2
 8000e36:	4a10      	ldr	r2, [pc, #64]	; (8000e78 <GPIO_voidSetPinPullUpDownResistor+0xac>)
 8000e38:	430b      	orrs	r3, r1
 8000e3a:	6013      	str	r3, [r2, #0]
      break;
 8000e3c:	e013      	b.n	8000e66 <GPIO_voidSetPinPullUpDownResistor+0x9a>
      MODIFY_REG(GPIOC_PUPDR,
 8000e3e:	4b0f      	ldr	r3, [pc, #60]	; (8000e7c <GPIO_voidSetPinPullUpDownResistor+0xb0>)
 8000e40:	681b      	ldr	r3, [r3, #0]
 8000e42:	79ba      	ldrb	r2, [r7, #6]
 8000e44:	0052      	lsls	r2, r2, #1
 8000e46:	2103      	movs	r1, #3
 8000e48:	fa01 f202 	lsl.w	r2, r1, r2
 8000e4c:	43d2      	mvns	r2, r2
 8000e4e:	4013      	ands	r3, r2
 8000e50:	7979      	ldrb	r1, [r7, #5]
 8000e52:	79ba      	ldrb	r2, [r7, #6]
 8000e54:	0052      	lsls	r2, r2, #1
 8000e56:	fa01 f202 	lsl.w	r2, r1, r2
 8000e5a:	4611      	mov	r1, r2
 8000e5c:	4a07      	ldr	r2, [pc, #28]	; (8000e7c <GPIO_voidSetPinPullUpDownResistor+0xb0>)
 8000e5e:	430b      	orrs	r3, r1
 8000e60:	6013      	str	r3, [r2, #0]
      break;
 8000e62:	e000      	b.n	8000e66 <GPIO_voidSetPinPullUpDownResistor+0x9a>
      break;
 8000e64:	bf00      	nop
  }
}
 8000e66:	bf00      	nop
 8000e68:	370c      	adds	r7, #12
 8000e6a:	46bd      	mov	sp, r7
 8000e6c:	f85d 7b04 	ldr.w	r7, [sp], #4
 8000e70:	4770      	bx	lr
 8000e72:	bf00      	nop
 8000e74:	4002000c 	.word	0x4002000c
 8000e78:	4002040c 	.word	0x4002040c
 8000e7c:	4002080c 	.word	0x4002080c

08000e80 <MNVIC_voidInit>:

/**********************************************************************************************************************
 *  GLOBAL FUNCTIONS
 *********************************************************************************************************************/
void MNVIC_voidInit(void)
{
 8000e80:	b580      	push	{r7, lr}
 8000e82:	af00      	add	r7, sp, #0
	MSCB_voidSetPriorityGrouping();
 8000e84:	f000 f8da 	bl	800103c <MSCB_voidSetPriorityGrouping>
}
 8000e88:	bf00      	nop
 8000e8a:	bd80      	pop	{r7, pc}

08000e8c <MNVIC_voidEnableIRQ>:

void MNVIC_voidEnableIRQ(IRQn_Type IRQn)
{
 8000e8c:	b480      	push	{r7}
 8000e8e:	b083      	sub	sp, #12
 8000e90:	af00      	add	r7, sp, #0
 8000e92:	4603      	mov	r3, r0
 8000e94:	71fb      	strb	r3, [r7, #7]
	if(IRQn >=0)
 8000e96:	f997 3007 	ldrsb.w	r3, [r7, #7]
 8000e9a:	2b00      	cmp	r3, #0
 8000e9c:	db0b      	blt.n	8000eb6 <MNVIC_voidEnableIRQ+0x2a>
	{
		NVIC->ISER[((u32)IRQn >> 5)] = (1UL << ((u32)IRQn & 0x1F));
 8000e9e:	79fb      	ldrb	r3, [r7, #7]
 8000ea0:	f003 021f 	and.w	r2, r3, #31
 8000ea4:	4907      	ldr	r1, [pc, #28]	; (8000ec4 <MNVIC_voidEnableIRQ+0x38>)
 8000ea6:	f997 3007 	ldrsb.w	r3, [r7, #7]
 8000eaa:	095b      	lsrs	r3, r3, #5
 8000eac:	2001      	movs	r0, #1
 8000eae:	fa00 f202 	lsl.w	r2, r0, r2
 8000eb2:	f841 2023 	str.w	r2, [r1, r3, lsl #2]
	}
}
 8000eb6:	bf00      	nop
 8000eb8:	370c      	adds	r7, #12
 8000eba:	46bd      	mov	sp, r7
 8000ebc:	f85d 7b04 	ldr.w	r7, [sp], #4
 8000ec0:	4770      	bx	lr
 8000ec2:	bf00      	nop
 8000ec4:	e000e100 	.word	0xe000e100

08000ec8 <RCC_void_HSI_Init>:
static void RCC_void_APB2Prescaler_Init(void);
/************************************************/

/******* Local Functions Implementation ********/
static void RCC_void_HSI_Init(void)
{
 8000ec8:	b480      	push	{r7}
 8000eca:	af00      	add	r7, sp, #0
    SET_BIT(RCC_CR,RCC_CR_HSION_Pos);  // Enable HSI
 8000ecc:	4b14      	ldr	r3, [pc, #80]	; (8000f20 <RCC_void_HSI_Init+0x58>)
 8000ece:	681b      	ldr	r3, [r3, #0]
 8000ed0:	4a13      	ldr	r2, [pc, #76]	; (8000f20 <RCC_void_HSI_Init+0x58>)
 8000ed2:	f043 0301 	orr.w	r3, r3, #1
 8000ed6:	6013      	str	r3, [r2, #0]
    CLR_BIT(RCC_CR,RCC_CR_HSEON_Pos); // Disable HSE  
 8000ed8:	4b11      	ldr	r3, [pc, #68]	; (8000f20 <RCC_void_HSI_Init+0x58>)
 8000eda:	681b      	ldr	r3, [r3, #0]
 8000edc:	4a10      	ldr	r2, [pc, #64]	; (8000f20 <RCC_void_HSI_Init+0x58>)
 8000ede:	f423 3380 	bic.w	r3, r3, #65536	; 0x10000
 8000ee2:	6013      	str	r3, [r2, #0]
    CLR_BIT(RCC_CR,RCC_CR_PLLON_Pos); // Disable PLL
 8000ee4:	4b0e      	ldr	r3, [pc, #56]	; (8000f20 <RCC_void_HSI_Init+0x58>)
 8000ee6:	681b      	ldr	r3, [r3, #0]
 8000ee8:	4a0d      	ldr	r2, [pc, #52]	; (8000f20 <RCC_void_HSI_Init+0x58>)
 8000eea:	f023 7380 	bic.w	r3, r3, #16777216	; 0x1000000
 8000eee:	6013      	str	r3, [r2, #0]
    // Polling (Busy Wait)
    while (GET_BIT(RCC_CR,RCC_CR_HSIRDY_Pos) == 0);
 8000ef0:	bf00      	nop
 8000ef2:	4b0b      	ldr	r3, [pc, #44]	; (8000f20 <RCC_void_HSI_Init+0x58>)
 8000ef4:	681b      	ldr	r3, [r3, #0]
 8000ef6:	f003 0302 	and.w	r3, r3, #2
 8000efa:	2b00      	cmp	r3, #0
 8000efc:	d0f9      	beq.n	8000ef2 <RCC_void_HSI_Init+0x2a>
    CLR_BIT(RCC_CFGR,RCC_CFGR_SW0_Pos);
 8000efe:	4b09      	ldr	r3, [pc, #36]	; (8000f24 <RCC_void_HSI_Init+0x5c>)
 8000f00:	681b      	ldr	r3, [r3, #0]
 8000f02:	4a08      	ldr	r2, [pc, #32]	; (8000f24 <RCC_void_HSI_Init+0x5c>)
 8000f04:	f023 0301 	bic.w	r3, r3, #1
 8000f08:	6013      	str	r3, [r2, #0]
    CLR_BIT(RCC_CFGR,RCC_CFGR_SW1_Pos);    
 8000f0a:	4b06      	ldr	r3, [pc, #24]	; (8000f24 <RCC_void_HSI_Init+0x5c>)
 8000f0c:	681b      	ldr	r3, [r3, #0]
 8000f0e:	4a05      	ldr	r2, [pc, #20]	; (8000f24 <RCC_void_HSI_Init+0x5c>)
 8000f10:	f023 0302 	bic.w	r3, r3, #2
 8000f14:	6013      	str	r3, [r2, #0]
}
 8000f16:	bf00      	nop
 8000f18:	46bd      	mov	sp, r7
 8000f1a:	f85d 7b04 	ldr.w	r7, [sp], #4
 8000f1e:	4770      	bx	lr
 8000f20:	40023800 	.word	0x40023800
 8000f24:	40023808 	.word	0x40023808

08000f28 <RCC_void_AHB1Prescaler_Init>:
    SET_BIT(RCC_CFGR,RCC_CFGR_SW0_Pos);
    SET_BIT(RCC_CFGR,RCC_CFGR_SW1_Pos); 

}
static void RCC_void_AHB1Prescaler_Init(void)
{
 8000f28:	b480      	push	{r7}
 8000f2a:	af00      	add	r7, sp, #0
    #if   RCC_AHB_PRESCALER == RCC_AHB_DIV_1
        RCC_CFGR &= ~(RCC_AHB_PRESCALER_MASK);
        RCC_CFGR |= RCC_AHB_DIV_1;
    #elif RCC_AHB_PRESCALER == RCC_AHB_DIV_2
        RCC_CFGR &= ~(RCC_AHB_PRESCALER_MASK);
 8000f2c:	4b08      	ldr	r3, [pc, #32]	; (8000f50 <RCC_void_AHB1Prescaler_Init+0x28>)
 8000f2e:	681b      	ldr	r3, [r3, #0]
 8000f30:	4a07      	ldr	r2, [pc, #28]	; (8000f50 <RCC_void_AHB1Prescaler_Init+0x28>)
 8000f32:	f023 03f0 	bic.w	r3, r3, #240	; 0xf0
 8000f36:	6013      	str	r3, [r2, #0]
        RCC_CFGR |= RCC_AHB_DIV_2;
 8000f38:	4b05      	ldr	r3, [pc, #20]	; (8000f50 <RCC_void_AHB1Prescaler_Init+0x28>)
 8000f3a:	681b      	ldr	r3, [r3, #0]
 8000f3c:	4a04      	ldr	r2, [pc, #16]	; (8000f50 <RCC_void_AHB1Prescaler_Init+0x28>)
 8000f3e:	f043 0380 	orr.w	r3, r3, #128	; 0x80
 8000f42:	6013      	str	r3, [r2, #0]
        RCC_CFGR |= RCC_AHB_DIV_256;
    #elif RCC_AHB_PRESCALER == RCC_AHB_DIV_512
        RCC_CFGR &= ~(RCC_AHB_PRESCALER_MASK);
        RCC_CFGR |= RCC_AHB_DIV_512;
    #endif
}
 8000f44:	bf00      	nop
 8000f46:	46bd      	mov	sp, r7
 8000f48:	f85d 7b04 	ldr.w	r7, [sp], #4
 8000f4c:	4770      	bx	lr
 8000f4e:	bf00      	nop
 8000f50:	40023808 	.word	0x40023808

08000f54 <RCC_void_APB1Prescaler_Init>:
static void RCC_void_APB1Prescaler_Init(void)
{
 8000f54:	b480      	push	{r7}
 8000f56:	af00      	add	r7, sp, #0
    #if RCC_APB1_PRESCALER == RCC_APB1_DIV_1
        RCC_CFGR &= ~(RCC_APB1_PRESCALER_MASK);
 8000f58:	4b07      	ldr	r3, [pc, #28]	; (8000f78 <RCC_void_APB1Prescaler_Init+0x24>)
 8000f5a:	681b      	ldr	r3, [r3, #0]
 8000f5c:	4a06      	ldr	r2, [pc, #24]	; (8000f78 <RCC_void_APB1Prescaler_Init+0x24>)
 8000f5e:	f423 53e0 	bic.w	r3, r3, #7168	; 0x1c00
 8000f62:	6013      	str	r3, [r2, #0]
        RCC_CFGR |= RCC_APB1_DIV_1;
 8000f64:	4b04      	ldr	r3, [pc, #16]	; (8000f78 <RCC_void_APB1Prescaler_Init+0x24>)
 8000f66:	4a04      	ldr	r2, [pc, #16]	; (8000f78 <RCC_void_APB1Prescaler_Init+0x24>)
 8000f68:	681b      	ldr	r3, [r3, #0]
 8000f6a:	6013      	str	r3, [r2, #0]
        RCC_CFGR |= RCC_APB1_DIV_8;
    #elif RCC_APB1_PRESCALER == RCC_APB1_DIV_16
        RCC_CFGR &= ~(RCC_APB1_PRESCALER_MASK);
        RCC_CFGR |= RCC_APB1_DIV_16;
    #endif
}
 8000f6c:	bf00      	nop
 8000f6e:	46bd      	mov	sp, r7
 8000f70:	f85d 7b04 	ldr.w	r7, [sp], #4
 8000f74:	4770      	bx	lr
 8000f76:	bf00      	nop
 8000f78:	40023808 	.word	0x40023808

08000f7c <RCC_void_APB2Prescaler_Init>:
static void RCC_void_APB2Prescaler_Init(void)
{
 8000f7c:	b480      	push	{r7}
 8000f7e:	af00      	add	r7, sp, #0
    #if (RCC_APB2_PRESCALER == RCC_APB2_DIV_1)
        RCC_CFGR &= ~(RCC_APB2_PRESCALER_MASK);
 8000f80:	4b07      	ldr	r3, [pc, #28]	; (8000fa0 <RCC_void_APB2Prescaler_Init+0x24>)
 8000f82:	681b      	ldr	r3, [r3, #0]
 8000f84:	4a06      	ldr	r2, [pc, #24]	; (8000fa0 <RCC_void_APB2Prescaler_Init+0x24>)
 8000f86:	f423 4360 	bic.w	r3, r3, #57344	; 0xe000
 8000f8a:	6013      	str	r3, [r2, #0]
        RCC_CFGR |= RCC_APB2_DIV_1;
 8000f8c:	4b04      	ldr	r3, [pc, #16]	; (8000fa0 <RCC_void_APB2Prescaler_Init+0x24>)
 8000f8e:	4a04      	ldr	r2, [pc, #16]	; (8000fa0 <RCC_void_APB2Prescaler_Init+0x24>)
 8000f90:	681b      	ldr	r3, [r3, #0]
 8000f92:	6013      	str	r3, [r2, #0]
        RCC_CFGR |= RCC_APB2_DIV_8;
    #elif (RCC_APB2_PRESCALER == RCC_APB2_DIV_16)
        RCC_CFGR &= ~(RCC_APB2_PRESCALER_MASK);
        RCC_CFGR |= RCC_APB2_DIV_16;
    #endif
}
 8000f94:	bf00      	nop
 8000f96:	46bd      	mov	sp, r7
 8000f98:	f85d 7b04 	ldr.w	r7, [sp], #4
 8000f9c:	4770      	bx	lr
 8000f9e:	bf00      	nop
 8000fa0:	40023808 	.word	0x40023808

08000fa4 <RCC_voidInit>:
/**********************************************  */
void RCC_voidInit(void)
{
 8000fa4:	b580      	push	{r7, lr}
 8000fa6:	af00      	add	r7, sp, #0
    #if RCC_CLOCK_SOURCE == RCC_CLK_HSI
        RCC_void_HSI_Init();        
 8000fa8:	f7ff ff8e 	bl	8000ec8 <RCC_void_HSI_Init>
    #elif RCC_CLOCK_SOURCE == RCC_CLK_PLL
        RCC_void_PLL_Init();
    #else
        #error "RCC_ClOCK_SOURCE_Configuration_Error"
    #endif    
    RCC_void_AHB1Prescaler_Init();
 8000fac:	f7ff ffbc 	bl	8000f28 <RCC_void_AHB1Prescaler_Init>
    RCC_void_APB1Prescaler_Init();
 8000fb0:	f7ff ffd0 	bl	8000f54 <RCC_void_APB1Prescaler_Init>
    RCC_void_APB2Prescaler_Init();   
 8000fb4:	f7ff ffe2 	bl	8000f7c <RCC_void_APB2Prescaler_Init>
}
 8000fb8:	bf00      	nop
 8000fba:	bd80      	pop	{r7, pc}

08000fbc <RCC_voidEnablePeripheralClock>:
    else
    {
        // Error
    }
}
void RCC_voidEnablePeripheralClock (u8 Copy_u8BusName, u8 Copy_u8PeripheralName){
 8000fbc:	b480      	push	{r7}
 8000fbe:	b083      	sub	sp, #12
 8000fc0:	af00      	add	r7, sp, #0
 8000fc2:	4603      	mov	r3, r0
 8000fc4:	460a      	mov	r2, r1
 8000fc6:	71fb      	strb	r3, [r7, #7]
 8000fc8:	4613      	mov	r3, r2
 8000fca:	71bb      	strb	r3, [r7, #6]
    switch (Copy_u8BusName)
 8000fcc:	79fb      	ldrb	r3, [r7, #7]
 8000fce:	2b02      	cmp	r3, #2
 8000fd0:	d01c      	beq.n	800100c <RCC_voidEnablePeripheralClock+0x50>
 8000fd2:	2b02      	cmp	r3, #2
 8000fd4:	dc25      	bgt.n	8001022 <RCC_voidEnablePeripheralClock+0x66>
 8000fd6:	2b00      	cmp	r3, #0
 8000fd8:	d002      	beq.n	8000fe0 <RCC_voidEnablePeripheralClock+0x24>
 8000fda:	2b01      	cmp	r3, #1
 8000fdc:	d00b      	beq.n	8000ff6 <RCC_voidEnablePeripheralClock+0x3a>
        SET_BIT(RCC_APB2ENR,Copy_u8PeripheralName);
        /* code */
        break;  
    default:
        // Error
        break;
 8000fde:	e020      	b.n	8001022 <RCC_voidEnablePeripheralClock+0x66>
        SET_BIT(RCC_AHB1ENR,Copy_u8PeripheralName);
 8000fe0:	4b13      	ldr	r3, [pc, #76]	; (8001030 <RCC_voidEnablePeripheralClock+0x74>)
 8000fe2:	681b      	ldr	r3, [r3, #0]
 8000fe4:	79ba      	ldrb	r2, [r7, #6]
 8000fe6:	2101      	movs	r1, #1
 8000fe8:	fa01 f202 	lsl.w	r2, r1, r2
 8000fec:	4611      	mov	r1, r2
 8000fee:	4a10      	ldr	r2, [pc, #64]	; (8001030 <RCC_voidEnablePeripheralClock+0x74>)
 8000ff0:	430b      	orrs	r3, r1
 8000ff2:	6013      	str	r3, [r2, #0]
        break;
 8000ff4:	e016      	b.n	8001024 <RCC_voidEnablePeripheralClock+0x68>
        SET_BIT(RCC_APB1ENR,Copy_u8PeripheralName);
 8000ff6:	4b0f      	ldr	r3, [pc, #60]	; (8001034 <RCC_voidEnablePeripheralClock+0x78>)
 8000ff8:	681b      	ldr	r3, [r3, #0]
 8000ffa:	79ba      	ldrb	r2, [r7, #6]
 8000ffc:	2101      	movs	r1, #1
 8000ffe:	fa01 f202 	lsl.w	r2, r1, r2
 8001002:	4611      	mov	r1, r2
 8001004:	4a0b      	ldr	r2, [pc, #44]	; (8001034 <RCC_voidEnablePeripheralClock+0x78>)
 8001006:	430b      	orrs	r3, r1
 8001008:	6013      	str	r3, [r2, #0]
        break;
 800100a:	e00b      	b.n	8001024 <RCC_voidEnablePeripheralClock+0x68>
        SET_BIT(RCC_APB2ENR,Copy_u8PeripheralName);
 800100c:	4b0a      	ldr	r3, [pc, #40]	; (8001038 <RCC_voidEnablePeripheralClock+0x7c>)
 800100e:	681b      	ldr	r3, [r3, #0]
 8001010:	79ba      	ldrb	r2, [r7, #6]
 8001012:	2101      	movs	r1, #1
 8001014:	fa01 f202 	lsl.w	r2, r1, r2
 8001018:	4611      	mov	r1, r2
 800101a:	4a07      	ldr	r2, [pc, #28]	; (8001038 <RCC_voidEnablePeripheralClock+0x7c>)
 800101c:	430b      	orrs	r3, r1
 800101e:	6013      	str	r3, [r2, #0]
        break;  
 8001020:	e000      	b.n	8001024 <RCC_voidEnablePeripheralClock+0x68>
        break;
 8001022:	bf00      	nop
    }
}
 8001024:	bf00      	nop
 8001026:	370c      	adds	r7, #12
 8001028:	46bd      	mov	sp, r7
 800102a:	f85d 7b04 	ldr.w	r7, [sp], #4
 800102e:	4770      	bx	lr
 8001030:	40023830 	.word	0x40023830
 8001034:	40023840 	.word	0x40023840
 8001038:	40023844 	.word	0x40023844

0800103c <MSCB_voidSetPriorityGrouping>:
 *
 * @note Changing the priority grouping affects the allocation of priority levels for interrupts.
 *       It is recommended to set the priority grouping early in the system initialization.
 */
void MSCB_voidSetPriorityGrouping()
{
 800103c:	b480      	push	{r7}
 800103e:	b083      	sub	sp, #12
 8001040:	af00      	add	r7, sp, #0
	u32 Register_Value = 0;
 8001042:	2300      	movs	r3, #0
 8001044:	607b      	str	r3, [r7, #4]
	u32 PriorityGroupTemp= (u32)SCB_PRIORITY_GROUP & (u32)0x07;
 8001046:	2305      	movs	r3, #5
 8001048:	603b      	str	r3, [r7, #0]
	Register_Value = SCB->AIRCR ;
 800104a:	4b0d      	ldr	r3, [pc, #52]	; (8001080 <MSCB_voidSetPriorityGrouping+0x44>)
 800104c:	68db      	ldr	r3, [r3, #12]
 800104e:	607b      	str	r3, [r7, #4]
	Register_Value &= ~(SCB_AIRCR_PRIGROUP_Msk | SCB_AIRCR_VECTKEY_Msk);
 8001050:	687a      	ldr	r2, [r7, #4]
 8001052:	f64f 03ff 	movw	r3, #63743	; 0xf8ff
 8001056:	4013      	ands	r3, r2
 8001058:	607b      	str	r3, [r7, #4]
	Register_Value |= ((u32)0x5FA << SCB_AIRCR_VECTKEY_POS) | (PriorityGroupTemp << SCB_AIRCR_PRIGROUP_POS);
 800105a:	683b      	ldr	r3, [r7, #0]
 800105c:	021a      	lsls	r2, r3, #8
 800105e:	687b      	ldr	r3, [r7, #4]
 8001060:	4313      	orrs	r3, r2
 8001062:	f043 63bf 	orr.w	r3, r3, #100139008	; 0x5f80000
 8001066:	f443 3300 	orr.w	r3, r3, #131072	; 0x20000
 800106a:	607b      	str	r3, [r7, #4]
	SCB->AIRCR = Register_Value ;
 800106c:	4a04      	ldr	r2, [pc, #16]	; (8001080 <MSCB_voidSetPriorityGrouping+0x44>)
 800106e:	687b      	ldr	r3, [r7, #4]
 8001070:	60d3      	str	r3, [r2, #12]
}
 8001072:	bf00      	nop
 8001074:	370c      	adds	r7, #12
 8001076:	46bd      	mov	sp, r7
 8001078:	f85d 7b04 	ldr.w	r7, [sp], #4
 800107c:	4770      	bx	lr
 800107e:	bf00      	nop
 8001080:	e000ed00 	.word	0xe000ed00

08001084 <MSysTick_voidInit>:
volatile PtrFunction SysTick_CallBack = NULL;
volatile u8 SysTick_Mode = SysTick_SingleInterval_Mode;
/********************/

void MSysTick_voidInit(void)
{
 8001084:	b480      	push	{r7}
 8001086:	af00      	add	r7, sp, #0
		/* Select The Processor Clock */
#if (SYSTICK_CLOCK_SOURCE == SYSTICK_AHB_DIV_1)
		SET_BIT(SysTick->CTRL,SysTick_CTRL_CLKSOURCE_Pos);
 8001088:	4b0b      	ldr	r3, [pc, #44]	; (80010b8 <MSysTick_voidInit+0x34>)
 800108a:	681b      	ldr	r3, [r3, #0]
 800108c:	4a0a      	ldr	r2, [pc, #40]	; (80010b8 <MSysTick_voidInit+0x34>)
 800108e:	f043 0304 	orr.w	r3, r3, #4
 8001092:	6013      	str	r3, [r2, #0]
		#if(SYSTICK_INT_CTRL == SYSTICK_ENABLE)
    /*Enable SysTick IRQ */
		SET_BIT(SysTick->CTRL,SysTick_CTRL_TICKINT_Pos);
    #elif(SYSTICK_INT_CTRL == SYSTICK_DISABLE)
    /*Disable SysTick IRQ */
		CLR_BIT(SysTick->CTRL,SysTick_CTRL_TICKINT_Pos);
 8001094:	4b08      	ldr	r3, [pc, #32]	; (80010b8 <MSysTick_voidInit+0x34>)
 8001096:	681b      	ldr	r3, [r3, #0]
 8001098:	4a07      	ldr	r2, [pc, #28]	; (80010b8 <MSysTick_voidInit+0x34>)
 800109a:	f023 0302 	bic.w	r3, r3, #2
 800109e:	6013      	str	r3, [r2, #0]
    #endif
    #if(SYSTICK_CTRL == SYSTICK_ENABLE)
    /*Enable SysTick Counter*/
    SET_BIT(SysTick->CTRL,SysTick_CTRL_ENABLE_Pos);
 80010a0:	4b05      	ldr	r3, [pc, #20]	; (80010b8 <MSysTick_voidInit+0x34>)
 80010a2:	681b      	ldr	r3, [r3, #0]
 80010a4:	4a04      	ldr	r2, [pc, #16]	; (80010b8 <MSysTick_voidInit+0x34>)
 80010a6:	f043 0301 	orr.w	r3, r3, #1
 80010aa:	6013      	str	r3, [r2, #0]
    #elif(SYSTICK_CTRL == SYSTICK_DISABLE)
    /* Disable SysTick Counter */
		CLR_BIT(SysTick->CTRL,SysTick_CTRL_ENABLE_Pos);
    #endif
}
 80010ac:	bf00      	nop
 80010ae:	46bd      	mov	sp, r7
 80010b0:	f85d 7b04 	ldr.w	r7, [sp], #4
 80010b4:	4770      	bx	lr
 80010b6:	bf00      	nop
 80010b8:	e000e010 	.word	0xe000e010

080010bc <MSysTick_voidDeInit>:
void MSysTick_voidDeInit(void)
{
 80010bc:	b480      	push	{r7}
 80010be:	af00      	add	r7, sp, #0
	/* Disable SysTick Counter */
	CLR_BIT(SysTick->CTRL,SysTick_CTRL_ENABLE_Pos);
 80010c0:	4b0b      	ldr	r3, [pc, #44]	; (80010f0 <MSysTick_voidDeInit+0x34>)
 80010c2:	681b      	ldr	r3, [r3, #0]
 80010c4:	4a0a      	ldr	r2, [pc, #40]	; (80010f0 <MSysTick_voidDeInit+0x34>)
 80010c6:	f023 0301 	bic.w	r3, r3, #1
 80010ca:	6013      	str	r3, [r2, #0]
	/* Reset The SysTick Reload Register */
	SysTick->LOAD = 0;
 80010cc:	4b08      	ldr	r3, [pc, #32]	; (80010f0 <MSysTick_voidDeInit+0x34>)
 80010ce:	2200      	movs	r2, #0
 80010d0:	605a      	str	r2, [r3, #4]
	/* Reset The SysTick Counter Value*/
	SysTick->VAL = 0;
 80010d2:	4b07      	ldr	r3, [pc, #28]	; (80010f0 <MSysTick_voidDeInit+0x34>)
 80010d4:	2200      	movs	r2, #0
 80010d6:	609a      	str	r2, [r3, #8]
	/*Disable SysTick IRQ */
	CLR_BIT(SysTick->CTRL,SysTick_CTRL_TICKINT_Pos);
 80010d8:	4b05      	ldr	r3, [pc, #20]	; (80010f0 <MSysTick_voidDeInit+0x34>)
 80010da:	681b      	ldr	r3, [r3, #0]
 80010dc:	4a04      	ldr	r2, [pc, #16]	; (80010f0 <MSysTick_voidDeInit+0x34>)
 80010de:	f023 0302 	bic.w	r3, r3, #2
 80010e2:	6013      	str	r3, [r2, #0]
}
 80010e4:	bf00      	nop
 80010e6:	46bd      	mov	sp, r7
 80010e8:	f85d 7b04 	ldr.w	r7, [sp], #4
 80010ec:	4770      	bx	lr
 80010ee:	bf00      	nop
 80010f0:	e000e010 	.word	0xe000e010

080010f4 <MSysTick_u32GetElapsedTime_us>:
	Local_ElapsedTicks =  (SysTick->LOAD - SysTick->VAL);
	/* Return The Local Variable */
	return Local_ElapsedTicks;
}
u32 MSysTick_u32GetElapsedTime_us(void)
{
 80010f4:	b480      	push	{r7}
 80010f6:	b083      	sub	sp, #12
 80010f8:	af00      	add	r7, sp, #0
	u32 Local_ElapsedTicks = 0;
 80010fa:	2300      	movs	r3, #0
 80010fc:	607b      	str	r3, [r7, #4]
	u32 Local_ElapsedTime_us = 0;
 80010fe:	2300      	movs	r3, #0
 8001100:	603b      	str	r3, [r7, #0]
	/* Copy The SysTick Elapsed Ticks to a Local Variable */
	Local_ElapsedTicks =  (SysTick->LOAD - SysTick->VAL);
 8001102:	4b08      	ldr	r3, [pc, #32]	; (8001124 <MSysTick_u32GetElapsedTime_us+0x30>)
 8001104:	685a      	ldr	r2, [r3, #4]
 8001106:	4b07      	ldr	r3, [pc, #28]	; (8001124 <MSysTick_u32GetElapsedTime_us+0x30>)
 8001108:	689b      	ldr	r3, [r3, #8]
 800110a:	1ad3      	subs	r3, r2, r3
 800110c:	607b      	str	r3, [r7, #4]
	Local_ElapsedTime_us = Local_ElapsedTicks /((u32)((SYSTICK_AHB_CLK/SYSTICK_CLOCK_SOURCE)/1000000.0));
 800110e:	687b      	ldr	r3, [r7, #4]
 8001110:	08db      	lsrs	r3, r3, #3
 8001112:	603b      	str	r3, [r7, #0]
	/* Return The Local Variable */
	return Local_ElapsedTime_us;
 8001114:	683b      	ldr	r3, [r7, #0]
}
 8001116:	4618      	mov	r0, r3
 8001118:	370c      	adds	r7, #12
 800111a:	46bd      	mov	sp, r7
 800111c:	f85d 7b04 	ldr.w	r7, [sp], #4
 8001120:	4770      	bx	lr
 8001122:	bf00      	nop
 8001124:	e000e010 	.word	0xe000e010

08001128 <MSystick_voidResetTimer>:
	/* Return The Local Variable */
	return Local_RemainingTicks;
}

void MSystick_voidResetTimer(void)
{
 8001128:	b480      	push	{r7}
 800112a:	af00      	add	r7, sp, #0
	SysTick->VAL = 0;
 800112c:	4b03      	ldr	r3, [pc, #12]	; (800113c <MSystick_voidResetTimer+0x14>)
 800112e:	2200      	movs	r2, #0
 8001130:	609a      	str	r2, [r3, #8]
}
 8001132:	bf00      	nop
 8001134:	46bd      	mov	sp, r7
 8001136:	f85d 7b04 	ldr.w	r7, [sp], #4
 800113a:	4770      	bx	lr
 800113c:	e000e010 	.word	0xe000e010

08001140 <MSystick_voidSetPreloadvalue>:

void MSystick_voidSetPreloadvalue(u32 Copy_u32Ticks)
{
 8001140:	b480      	push	{r7}
 8001142:	b083      	sub	sp, #12
 8001144:	af00      	add	r7, sp, #0
 8001146:	6078      	str	r0, [r7, #4]
	SysTick->LOAD = Copy_u32Ticks;
 8001148:	4a05      	ldr	r2, [pc, #20]	; (8001160 <MSystick_voidSetPreloadvalue+0x20>)
 800114a:	687b      	ldr	r3, [r7, #4]
 800114c:	6053      	str	r3, [r2, #4]
	SysTick->VAL = 0;
 800114e:	4b04      	ldr	r3, [pc, #16]	; (8001160 <MSystick_voidSetPreloadvalue+0x20>)
 8001150:	2200      	movs	r2, #0
 8001152:	609a      	str	r2, [r3, #8]
}
 8001154:	bf00      	nop
 8001156:	370c      	adds	r7, #12
 8001158:	46bd      	mov	sp, r7
 800115a:	f85d 7b04 	ldr.w	r7, [sp], #4
 800115e:	4770      	bx	lr
 8001160:	e000e010 	.word	0xe000e010

08001164 <SysTick_Handler>:
void SysTick_Handler(void)
{
 8001164:	b580      	push	{r7, lr}
 8001166:	af00      	add	r7, sp, #0
	if (SysTick_Mode == SysTick_SingleInterval_Mode)
 8001168:	4b07      	ldr	r3, [pc, #28]	; (8001188 <SysTick_Handler+0x24>)
 800116a:	781b      	ldrb	r3, [r3, #0]
 800116c:	b2db      	uxtb	r3, r3
 800116e:	2b00      	cmp	r3, #0
 8001170:	d101      	bne.n	8001176 <SysTick_Handler+0x12>
	{
		MSysTick_voidDeInit();
 8001172:	f7ff ffa3 	bl	80010bc <MSysTick_voidDeInit>
	}
	if(SysTick_CallBack)
 8001176:	4b05      	ldr	r3, [pc, #20]	; (800118c <SysTick_Handler+0x28>)
 8001178:	681b      	ldr	r3, [r3, #0]
 800117a:	2b00      	cmp	r3, #0
 800117c:	d002      	beq.n	8001184 <SysTick_Handler+0x20>
	{
		SysTick_CallBack();
 800117e:	4b03      	ldr	r3, [pc, #12]	; (800118c <SysTick_Handler+0x28>)
 8001180:	681b      	ldr	r3, [r3, #0]
 8001182:	4798      	blx	r3
	}
}
 8001184:	bf00      	nop
 8001186:	bd80      	pop	{r7, pc}
 8001188:	20000080 	.word	0x20000080
 800118c:	2000007c 	.word	0x2000007c

08001190 <IR_Handler>:
#include "MCAL/SYSTICK/SYSTICK_private.h"
#include "LIB/STD_TYPES.h"
#include "LIB/Delay.h"

// ----------------------------------------------------------------------------
void IR_Handler(void){
 8001190:	b580      	push	{r7, lr}
 8001192:	b082      	sub	sp, #8
 8001194:	af00      	add	r7, sp, #0
	if(IR_u32GetReceivedData() == IR_TV_REMOTE_RED_BUTTON)
 8001196:	f7ff f869 	bl	800026c <IR_u32GetReceivedData>
 800119a:	4603      	mov	r3, r0
 800119c:	4a16      	ldr	r2, [pc, #88]	; (80011f8 <IR_Handler+0x68>)
 800119e:	4293      	cmp	r3, r2
 80011a0:	d111      	bne.n	80011c6 <IR_Handler+0x36>
	{
		RGB_voidLedToggle(&RGB_Lcfg, RGB_RED_LED);
 80011a2:	2100      	movs	r1, #0
 80011a4:	4815      	ldr	r0, [pc, #84]	; (80011fc <IR_Handler+0x6c>)
 80011a6:	f7ff f9e0 	bl	800056a <RGB_voidLedToggle>
		Delay_ms(5000);
 80011aa:	4b15      	ldr	r3, [pc, #84]	; (8001200 <IR_Handler+0x70>)
 80011ac:	607b      	str	r3, [r7, #4]
 80011ae:	e002      	b.n	80011b6 <IR_Handler+0x26>
 80011b0:	687b      	ldr	r3, [r7, #4]
 80011b2:	3b01      	subs	r3, #1
 80011b4:	607b      	str	r3, [r7, #4]
 80011b6:	687b      	ldr	r3, [r7, #4]
 80011b8:	2b00      	cmp	r3, #0
 80011ba:	d1f9      	bne.n	80011b0 <IR_Handler+0x20>
		RGB_voidLedToggle(&RGB_Lcfg, RGB_RED_LED);
 80011bc:	2100      	movs	r1, #0
 80011be:	480f      	ldr	r0, [pc, #60]	; (80011fc <IR_Handler+0x6c>)
 80011c0:	f7ff f9d3 	bl	800056a <RGB_voidLedToggle>
	}
	else if(IR_u32GetReceivedData() == IR_9_BUTTON){

	}*/

}
 80011c4:	e014      	b.n	80011f0 <IR_Handler+0x60>
	else if(IR_u32GetReceivedData() == IR_TV_REMOTE_GREEN_BUTTON){
 80011c6:	f7ff f851 	bl	800026c <IR_u32GetReceivedData>
 80011ca:	4603      	mov	r3, r0
 80011cc:	4a0d      	ldr	r2, [pc, #52]	; (8001204 <IR_Handler+0x74>)
 80011ce:	4293      	cmp	r3, r2
 80011d0:	d104      	bne.n	80011dc <IR_Handler+0x4c>
		RGB_voidLedToggle(&RGB_Lcfg, RGB_GREEN_LED);
 80011d2:	2101      	movs	r1, #1
 80011d4:	4809      	ldr	r0, [pc, #36]	; (80011fc <IR_Handler+0x6c>)
 80011d6:	f7ff f9c8 	bl	800056a <RGB_voidLedToggle>
}
 80011da:	e009      	b.n	80011f0 <IR_Handler+0x60>
	else if(IR_u32GetReceivedData() == IR_TV_REMOTE_BLUE_BUTTON){
 80011dc:	f7ff f846 	bl	800026c <IR_u32GetReceivedData>
 80011e0:	4603      	mov	r3, r0
 80011e2:	4a09      	ldr	r2, [pc, #36]	; (8001208 <IR_Handler+0x78>)
 80011e4:	4293      	cmp	r3, r2
 80011e6:	d103      	bne.n	80011f0 <IR_Handler+0x60>
		RGB_voidLedToggle(&RGB_Lcfg, RGB_BLUE_LED);
 80011e8:	2102      	movs	r1, #2
 80011ea:	4804      	ldr	r0, [pc, #16]	; (80011fc <IR_Handler+0x6c>)
 80011ec:	f7ff f9bd 	bl	800056a <RGB_voidLedToggle>
}
 80011f0:	bf00      	nop
 80011f2:	3708      	adds	r7, #8
 80011f4:	46bd      	mov	sp, r7
 80011f6:	bd80      	pop	{r7, pc}
 80011f8:	22d900ff 	.word	0x22d900ff
 80011fc:	20000008 	.word	0x20000008
 8001200:	003d0900 	.word	0x003d0900
 8001204:	22d940bf 	.word	0x22d940bf
 8001208:	22d920df 	.word	0x22d920df

0800120c <main>:

int main(void)
{
 800120c:	b580      	push	{r7, lr}
 800120e:	b084      	sub	sp, #16
 8001210:	af00      	add	r7, sp, #0
	RGB_voidInit(&RGB_Lcfg);
 8001212:	4817      	ldr	r0, [pc, #92]	; (8001270 <main+0x64>)
 8001214:	f7ff f989 	bl	800052a <RGB_voidInit>
	LED_voidInit(&led_red1);
 8001218:	4816      	ldr	r0, [pc, #88]	; (8001274 <main+0x68>)
 800121a:	f7ff f8c7 	bl	80003ac <LED_voidInit>
	IR_voidInit(&IR_Config,IR_Handler);
 800121e:	4916      	ldr	r1, [pc, #88]	; (8001278 <main+0x6c>)
 8001220:	4816      	ldr	r0, [pc, #88]	; (800127c <main+0x70>)
 8001222:	f7fe ffd7 	bl	80001d4 <IR_voidInit>
    /* Loop forever */
	while(1)
	{
		LED_voidToggle(&led_red1);
 8001226:	4813      	ldr	r0, [pc, #76]	; (8001274 <main+0x68>)
 8001228:	f7ff f92a 	bl	8000480 <LED_voidToggle>
		Delay_us(5000000);
 800122c:	4b14      	ldr	r3, [pc, #80]	; (8001280 <main+0x74>)
 800122e:	60fb      	str	r3, [r7, #12]
 8001230:	e002      	b.n	8001238 <main+0x2c>
 8001232:	68fb      	ldr	r3, [r7, #12]
 8001234:	3b01      	subs	r3, #1
 8001236:	60fb      	str	r3, [r7, #12]
 8001238:	68fb      	ldr	r3, [r7, #12]
 800123a:	2b00      	cmp	r3, #0
 800123c:	d1f9      	bne.n	8001232 <main+0x26>
		LED_voidToggle(&led_red1);
 800123e:	480d      	ldr	r0, [pc, #52]	; (8001274 <main+0x68>)
 8001240:	f7ff f91e 	bl	8000480 <LED_voidToggle>
		Delay_ms(5000);
 8001244:	4b0e      	ldr	r3, [pc, #56]	; (8001280 <main+0x74>)
 8001246:	60bb      	str	r3, [r7, #8]
 8001248:	e002      	b.n	8001250 <main+0x44>
 800124a:	68bb      	ldr	r3, [r7, #8]
 800124c:	3b01      	subs	r3, #1
 800124e:	60bb      	str	r3, [r7, #8]
 8001250:	68bb      	ldr	r3, [r7, #8]
 8001252:	2b00      	cmp	r3, #0
 8001254:	d1f9      	bne.n	800124a <main+0x3e>
		LED_voidToggle(&led_red1);
 8001256:	4807      	ldr	r0, [pc, #28]	; (8001274 <main+0x68>)
 8001258:	f7ff f912 	bl	8000480 <LED_voidToggle>
		Delay_sec(5);
 800125c:	4b08      	ldr	r3, [pc, #32]	; (8001280 <main+0x74>)
 800125e:	607b      	str	r3, [r7, #4]
 8001260:	e002      	b.n	8001268 <main+0x5c>
 8001262:	687b      	ldr	r3, [r7, #4]
 8001264:	3b01      	subs	r3, #1
 8001266:	607b      	str	r3, [r7, #4]
 8001268:	687b      	ldr	r3, [r7, #4]
 800126a:	2b00      	cmp	r3, #0
 800126c:	d1f9      	bne.n	8001262 <main+0x56>
		LED_voidToggle(&led_red1);
 800126e:	e7da      	b.n	8001226 <main+0x1a>
 8001270:	20000008 	.word	0x20000008
 8001274:	20000004 	.word	0x20000004
 8001278:	08001191 	.word	0x08001191
 800127c:	20000000 	.word	0x20000000
 8001280:	003d0900 	.word	0x003d0900

08001284 <SystemInit>:

/**********************************************************************************************************************
 *  GLOBAL FUNCTIONS
 *********************************************************************************************************************/
void SystemInit(void)
{
 8001284:	b580      	push	{r7, lr}
 8001286:	af00      	add	r7, sp, #0
	RCC_voidInit();
 8001288:	f7ff fe8c 	bl	8000fa4 <RCC_voidInit>
	MSysTick_voidInit();
 800128c:	f7ff fefa 	bl	8001084 <MSysTick_voidInit>
	MNVIC_voidInit();
 8001290:	f7ff fdf6 	bl	8000e80 <MNVIC_voidInit>
}
 8001294:	bf00      	nop
 8001296:	bd80      	pop	{r7, pc}

08001298 <Reset_Handler>:

  .section .text.Reset_Handler
  .weak Reset_Handler
  .type Reset_Handler, %function
Reset_Handler:
  ldr   r0, =_estack
 8001298:	480d      	ldr	r0, [pc, #52]	; (80012d0 <LoopForever+0x2>)
  mov   sp, r0          /* set stack pointer */
 800129a:	4685      	mov	sp, r0
/* Call the clock system initialization function.*/
  bl  SystemInit
 800129c:	f7ff fff2 	bl	8001284 <SystemInit>

/* Copy the data segment initializers from flash to SRAM */
  ldr r0, =_sdata
 80012a0:	480c      	ldr	r0, [pc, #48]	; (80012d4 <LoopForever+0x6>)
  ldr r1, =_edata
 80012a2:	490d      	ldr	r1, [pc, #52]	; (80012d8 <LoopForever+0xa>)
  ldr r2, =_sidata
 80012a4:	4a0d      	ldr	r2, [pc, #52]	; (80012dc <LoopForever+0xe>)
  movs r3, #0
 80012a6:	2300      	movs	r3, #0
  b LoopCopyDataInit
 80012a8:	e002      	b.n	80012b0 <LoopCopyDataInit>

080012aa <CopyDataInit>:

CopyDataInit:
  ldr r4, [r2, r3]
 80012aa:	58d4      	ldr	r4, [r2, r3]
  str r4, [r0, r3]
 80012ac:	50c4      	str	r4, [r0, r3]
  adds r3, r3, #4
 80012ae:	3304      	adds	r3, #4

080012b0 <LoopCopyDataInit>:

LoopCopyDataInit:
  adds r4, r0, r3
 80012b0:	18c4      	adds	r4, r0, r3
  cmp r4, r1
 80012b2:	428c      	cmp	r4, r1
  bcc CopyDataInit
 80012b4:	d3f9      	bcc.n	80012aa <CopyDataInit>

/* Zero fill the bss segment. */
  ldr r2, =_sbss
 80012b6:	4a0a      	ldr	r2, [pc, #40]	; (80012e0 <LoopForever+0x12>)
  ldr r4, =_ebss
 80012b8:	4c0a      	ldr	r4, [pc, #40]	; (80012e4 <LoopForever+0x16>)
  movs r3, #0
 80012ba:	2300      	movs	r3, #0
  b LoopFillZerobss
 80012bc:	e001      	b.n	80012c2 <LoopFillZerobss>

080012be <FillZerobss>:

FillZerobss:
  str  r3, [r2]
 80012be:	6013      	str	r3, [r2, #0]
  adds r2, r2, #4
 80012c0:	3204      	adds	r2, #4

080012c2 <LoopFillZerobss>:

LoopFillZerobss:
  cmp r2, r4
 80012c2:	42a2      	cmp	r2, r4
  bcc FillZerobss
 80012c4:	d3fb      	bcc.n	80012be <FillZerobss>

/* Call static constructors */
  bl __libc_init_array
 80012c6:	f000 f811 	bl	80012ec <__libc_init_array>
/* Call the application's entry point.*/
  bl main
 80012ca:	f7ff ff9f 	bl	800120c <main>

080012ce <LoopForever>:

LoopForever:
  b LoopForever
 80012ce:	e7fe      	b.n	80012ce <LoopForever>
  ldr   r0, =_estack
 80012d0:	20010000 	.word	0x20010000
  ldr r0, =_sdata
 80012d4:	20000000 	.word	0x20000000
  ldr r1, =_edata
 80012d8:	20000014 	.word	0x20000014
  ldr r2, =_sidata
 80012dc:	08001354 	.word	0x08001354
  ldr r2, =_sbss
 80012e0:	20000014 	.word	0x20000014
  ldr r4, =_ebss
 80012e4:	20000084 	.word	0x20000084

080012e8 <ADC_IRQHandler>:
 * @retval : None
*/
  .section .text.Default_Handler,"ax",%progbits
Default_Handler:
Infinite_Loop:
  b Infinite_Loop
 80012e8:	e7fe      	b.n	80012e8 <ADC_IRQHandler>
	...

080012ec <__libc_init_array>:
 80012ec:	b570      	push	{r4, r5, r6, lr}
 80012ee:	4d0d      	ldr	r5, [pc, #52]	; (8001324 <__libc_init_array+0x38>)
 80012f0:	4c0d      	ldr	r4, [pc, #52]	; (8001328 <__libc_init_array+0x3c>)
 80012f2:	1b64      	subs	r4, r4, r5
 80012f4:	10a4      	asrs	r4, r4, #2
 80012f6:	2600      	movs	r6, #0
 80012f8:	42a6      	cmp	r6, r4
 80012fa:	d109      	bne.n	8001310 <__libc_init_array+0x24>
 80012fc:	4d0b      	ldr	r5, [pc, #44]	; (800132c <__libc_init_array+0x40>)
 80012fe:	4c0c      	ldr	r4, [pc, #48]	; (8001330 <__libc_init_array+0x44>)
 8001300:	f000 f818 	bl	8001334 <_init>
 8001304:	1b64      	subs	r4, r4, r5
 8001306:	10a4      	asrs	r4, r4, #2
 8001308:	2600      	movs	r6, #0
 800130a:	42a6      	cmp	r6, r4
 800130c:	d105      	bne.n	800131a <__libc_init_array+0x2e>
 800130e:	bd70      	pop	{r4, r5, r6, pc}
 8001310:	f855 3b04 	ldr.w	r3, [r5], #4
 8001314:	4798      	blx	r3
 8001316:	3601      	adds	r6, #1
 8001318:	e7ee      	b.n	80012f8 <__libc_init_array+0xc>
 800131a:	f855 3b04 	ldr.w	r3, [r5], #4
 800131e:	4798      	blx	r3
 8001320:	3601      	adds	r6, #1
 8001322:	e7f2      	b.n	800130a <__libc_init_array+0x1e>
 8001324:	0800134c 	.word	0x0800134c
 8001328:	0800134c 	.word	0x0800134c
 800132c:	0800134c 	.word	0x0800134c
 8001330:	08001350 	.word	0x08001350

08001334 <_init>:
 8001334:	b5f8      	push	{r3, r4, r5, r6, r7, lr}
 8001336:	bf00      	nop
 8001338:	bcf8      	pop	{r3, r4, r5, r6, r7}
 800133a:	bc08      	pop	{r3}
 800133c:	469e      	mov	lr, r3
 800133e:	4770      	bx	lr

08001340 <_fini>:
 8001340:	b5f8      	push	{r3, r4, r5, r6, r7, lr}
 8001342:	bf00      	nop
 8001344:	bcf8      	pop	{r3, r4, r5, r6, r7}
 8001346:	bc08      	pop	{r3}
 8001348:	469e      	mov	lr, r3
 800134a:	4770      	bx	lr
